ARM GAS  C:\Users\kroko\AppData\Local\Temp\ccNEdXH2.s 			page 1


   1              		.cpu cortex-m4
   2              		.arch armv7e-m
   3              		.fpu fpv4-sp-d16
   4              		.eabi_attribute 27, 1
   5              		.eabi_attribute 28, 1
   6              		.eabi_attribute 20, 1
   7              		.eabi_attribute 21, 1
   8              		.eabi_attribute 23, 3
   9              		.eabi_attribute 24, 1
  10              		.eabi_attribute 25, 1
  11              		.eabi_attribute 26, 1
  12              		.eabi_attribute 30, 1
  13              		.eabi_attribute 34, 1
  14              		.eabi_attribute 18, 4
  15              		.file	"dispcolor.c"
  16              		.text
  17              	.Ltext0:
  18              		.cfi_sections	.debug_frame
  19              		.file 1 "Core/Src/dispcolor.c"
  20              		.section	.text.SwapInt16Values,"ax",%progbits
  21              		.align	1
  22              		.syntax unified
  23              		.thumb
  24              		.thumb_func
  26              	SwapInt16Values:
  27              	.LVL0:
  28              	.LFB3:
   1:Core/Src/dispcolor.c **** //------------------------------------------------------------------------------
   2:Core/Src/dispcolor.c **** // This is Open source software. You can place this code on your site, but don't
   3:Core/Src/dispcolor.c **** // forget a link to my YouTube-channel: https://www.youtube.com/channel/UChButpZaL5kUUl_zTyIDFkQ
   4:Core/Src/dispcolor.c **** // Это программное обеспечение распространяется свободно. Вы можете размещать
   5:Core/Src/dispcolor.c **** // его на вашем сайте, но не забудьте указать ссылку на мой YouTube-канал
   6:Core/Src/dispcolor.c **** // "Электроника в объектике" https://www.youtube.com/channel/UChButpZaL5kUUl_zTyIDFkQ
   7:Core/Src/dispcolor.c **** // Автор: Надыршин Руслан / Nadyrshin Ruslan
   8:Core/Src/dispcolor.c **** //------------------------------------------------------------------------------
   9:Core/Src/dispcolor.c **** #include <dispcolor.h>
  10:Core/Src/dispcolor.c **** #include <font.h>
  11:Core/Src/dispcolor.c **** #include <stdio.h>
  12:Core/Src/dispcolor.c **** #include <stdlib.h>
  13:Core/Src/dispcolor.c **** #include <stdarg.h>
  14:Core/Src/dispcolor.c **** #include <string.h>
  15:Core/Src/dispcolor.c **** #include <math.h>
  16:Core/Src/dispcolor.c **** 
  17:Core/Src/dispcolor.c **** #define PI 3.14159265
  18:Core/Src/dispcolor.c **** static uint16_t _Width, _Height;
  19:Core/Src/dispcolor.c **** 
  20:Core/Src/dispcolor.c **** #if (DISPCOLOR_type == DISPTYPE_gc9a01a)
  21:Core/Src/dispcolor.c **** #include <gc9a01a.h>
  22:Core/Src/dispcolor.c **** #else
  23:Core/Src/dispcolor.c ****   #error пїЅпїЅпїЅпїЅпїЅпїЅ c пїЅпїЅпїЅпїЅпїЅпїЅпїЅпїЅпїЅ пїЅпїЅпїЅпїЅпїЅ пїЅпїЅпїЅпїЅпїЅпїЅпїЅ пїЅ
  24:Core/Src/dispcolor.c **** #endif
  25:Core/Src/dispcolor.c **** 
  26:Core/Src/dispcolor.c **** 
  27:Core/Src/dispcolor.c **** static void SwapInt16Values(int16_t *pValue1, int16_t *pValue2) {
  29              		.loc 1 27 65 view -0
  30              		.cfi_startproc
  31              		@ args = 0, pretend = 0, frame = 0
ARM GAS  C:\Users\kroko\AppData\Local\Temp\ccNEdXH2.s 			page 2


  32              		@ frame_needed = 0, uses_anonymous_args = 0
  33              		@ link register save eliminated.
  28:Core/Src/dispcolor.c **** 	int16_t TempValue = *pValue1;
  34              		.loc 1 28 2 view .LVU1
  35              		.loc 1 28 10 is_stmt 0 view .LVU2
  36 0000 B0F90030 		ldrsh	r3, [r0]
  37              	.LVL1:
  29:Core/Src/dispcolor.c **** 	*pValue1 = *pValue2;
  38              		.loc 1 29 2 is_stmt 1 view .LVU3
  39              		.loc 1 29 13 is_stmt 0 view .LVU4
  40 0004 B1F90020 		ldrsh	r2, [r1]
  41              		.loc 1 29 11 view .LVU5
  42 0008 0280     		strh	r2, [r0]	@ movhi
  30:Core/Src/dispcolor.c **** 	*pValue2 = TempValue;
  43              		.loc 1 30 2 is_stmt 1 view .LVU6
  44              		.loc 1 30 11 is_stmt 0 view .LVU7
  45 000a 0B80     		strh	r3, [r1]	@ movhi
  31:Core/Src/dispcolor.c **** }
  46              		.loc 1 31 1 view .LVU8
  47 000c 7047     		bx	lr
  48              		.cfi_endproc
  49              	.LFE3:
  51              		.section	.text.dispcolor_Update,"ax",%progbits
  52              		.align	1
  53              		.global	dispcolor_Update
  54              		.syntax unified
  55              		.thumb
  56              		.thumb_func
  58              	dispcolor_Update:
  59              	.LFB5:
  32:Core/Src/dispcolor.c **** 
  33:Core/Src/dispcolor.c **** void dispcolor_Init(uint8_t Width, uint8_t Height) {
  34:Core/Src/dispcolor.c **** #if (DISPCOLOR_type == DISPTYPE_gc9a01a)
  35:Core/Src/dispcolor.c **** 	GC9A01A_Init(Width, Height);
  36:Core/Src/dispcolor.c **** 	_Width = GC9A01A_GetWidth();
  37:Core/Src/dispcolor.c **** 	_Height = GC9A01A_GetHeight();
  38:Core/Src/dispcolor.c **** #endif
  39:Core/Src/dispcolor.c **** 
  40:Core/Src/dispcolor.c **** 	dispcolor_ClearScreen();
  41:Core/Src/dispcolor.c **** }
  42:Core/Src/dispcolor.c **** 
  43:Core/Src/dispcolor.c **** void dispcolor_Update() {
  60              		.loc 1 43 25 is_stmt 1 view -0
  61              		.cfi_startproc
  62              		@ args = 0, pretend = 0, frame = 0
  63              		@ frame_needed = 0, uses_anonymous_args = 0
  64 0000 08B5     		push	{r3, lr}
  65              		.cfi_def_cfa_offset 8
  66              		.cfi_offset 3, -8
  67              		.cfi_offset 14, -4
  44:Core/Src/dispcolor.c **** #if (DISPCOLOR_type == DISPTYPE_gc9a01a)
  45:Core/Src/dispcolor.c **** 	GC9A01A_Update();
  68              		.loc 1 45 2 view .LVU10
  69 0002 FFF7FEFF 		bl	GC9A01A_Update
  70              	.LVL2:
  46:Core/Src/dispcolor.c **** #endif
  47:Core/Src/dispcolor.c **** }
ARM GAS  C:\Users\kroko\AppData\Local\Temp\ccNEdXH2.s 			page 3


  71              		.loc 1 47 1 is_stmt 0 view .LVU11
  72 0006 08BD     		pop	{r3, pc}
  73              		.cfi_endproc
  74              	.LFE5:
  76              		.section	.text.dispcolor_SetBrightness,"ax",%progbits
  77              		.align	1
  78              		.global	dispcolor_SetBrightness
  79              		.syntax unified
  80              		.thumb
  81              		.thumb_func
  83              	dispcolor_SetBrightness:
  84              	.LVL3:
  85              	.LFB6:
  48:Core/Src/dispcolor.c **** 
  49:Core/Src/dispcolor.c **** void dispcolor_SetBrightness(uint8_t Value) {
  86              		.loc 1 49 45 is_stmt 1 view -0
  87              		.cfi_startproc
  88              		@ args = 0, pretend = 0, frame = 0
  89              		@ frame_needed = 0, uses_anonymous_args = 0
  90              		.loc 1 49 45 is_stmt 0 view .LVU13
  91 0000 08B5     		push	{r3, lr}
  92              		.cfi_def_cfa_offset 8
  93              		.cfi_offset 3, -8
  94              		.cfi_offset 14, -4
  50:Core/Src/dispcolor.c **** 	if (Value > 100)
  95              		.loc 1 50 2 is_stmt 1 view .LVU14
  96              		.loc 1 50 5 is_stmt 0 view .LVU15
  97 0002 6428     		cmp	r0, #100
  98 0004 00D9     		bls	.L5
  51:Core/Src/dispcolor.c **** 		Value = 100;
  99              		.loc 1 51 9 view .LVU16
 100 0006 6420     		movs	r0, #100
 101              	.LVL4:
 102              	.L5:
  52:Core/Src/dispcolor.c **** 
  53:Core/Src/dispcolor.c **** #if (DISPCOLOR_type == DISPTYPE_gc9a01a)
  54:Core/Src/dispcolor.c **** 	GC9A01A_SetBL(Value);
 103              		.loc 1 54 2 is_stmt 1 view .LVU17
 104 0008 FFF7FEFF 		bl	GC9A01A_SetBL
 105              	.LVL5:
  55:Core/Src/dispcolor.c **** #endif
  56:Core/Src/dispcolor.c **** }
 106              		.loc 1 56 1 is_stmt 0 view .LVU18
 107 000c 08BD     		pop	{r3, pc}
 108              		.cfi_endproc
 109              	.LFE6:
 111              		.section	.text.dispcolor_DrawPixel,"ax",%progbits
 112              		.align	1
 113              		.global	dispcolor_DrawPixel
 114              		.syntax unified
 115              		.thumb
 116              		.thumb_func
 118              	dispcolor_DrawPixel:
 119              	.LVL6:
 120              	.LFB7:
  57:Core/Src/dispcolor.c **** 
  58:Core/Src/dispcolor.c **** void dispcolor_DrawPixel(int16_t x, int16_t y, uint16_t color) {
ARM GAS  C:\Users\kroko\AppData\Local\Temp\ccNEdXH2.s 			page 4


 121              		.loc 1 58 64 is_stmt 1 view -0
 122              		.cfi_startproc
 123              		@ args = 0, pretend = 0, frame = 0
 124              		@ frame_needed = 0, uses_anonymous_args = 0
 125              		.loc 1 58 64 is_stmt 0 view .LVU20
 126 0000 08B5     		push	{r3, lr}
 127              		.cfi_def_cfa_offset 8
 128              		.cfi_offset 3, -8
 129              		.cfi_offset 14, -4
  59:Core/Src/dispcolor.c **** #if (DISPCOLOR_type == DISPTYPE_gc9a01a)
  60:Core/Src/dispcolor.c **** 	GC9A01A_DrawPixel(x, y, color);
 130              		.loc 1 60 2 is_stmt 1 view .LVU21
 131 0002 FFF7FEFF 		bl	GC9A01A_DrawPixel
 132              	.LVL7:
  61:Core/Src/dispcolor.c **** #endif
  62:Core/Src/dispcolor.c **** }
 133              		.loc 1 62 1 is_stmt 0 view .LVU22
 134 0006 08BD     		pop	{r3, pc}
 135              		.cfi_endproc
 136              	.LFE7:
 138              		.section	.text.DrawLine_Slow,"ax",%progbits
 139              		.align	1
 140              		.syntax unified
 141              		.thumb
 142              		.thumb_func
 144              	DrawLine_Slow:
 145              	.LVL8:
 146              	.LFB12:
  63:Core/Src/dispcolor.c **** 
  64:Core/Src/dispcolor.c **** uint16_t dispcolor_GetPixel(int16_t x, int16_t y) {
  65:Core/Src/dispcolor.c **** #if (DISPCOLOR_type == DISPTYPE_gc9a01a)
  66:Core/Src/dispcolor.c **** 	return GC9A01A_GetPixel(x, y);
  67:Core/Src/dispcolor.c **** #endif
  68:Core/Src/dispcolor.c **** }
  69:Core/Src/dispcolor.c **** 
  70:Core/Src/dispcolor.c **** void dispcolor_FillRect(int16_t x, int16_t y, int16_t w, int16_t h,
  71:Core/Src/dispcolor.c **** 		uint16_t color) {
  72:Core/Src/dispcolor.c **** #if (DISPCOLOR_type == DISPTYPE_gc9a01a)
  73:Core/Src/dispcolor.c **** 	GC9A01A_FillRect(x, y, w, h, color);
  74:Core/Src/dispcolor.c **** #endif
  75:Core/Src/dispcolor.c **** }
  76:Core/Src/dispcolor.c **** 
  77:Core/Src/dispcolor.c **** void dispcolor_FillScreen(uint16_t color) {
  78:Core/Src/dispcolor.c **** 	dispcolor_FillRect(0, 0, _Width, _Height, color);
  79:Core/Src/dispcolor.c **** }
  80:Core/Src/dispcolor.c **** 
  81:Core/Src/dispcolor.c **** void dispcolor_ClearScreen(void) {
  82:Core/Src/dispcolor.c **** 	dispcolor_FillScreen(BLACK);
  83:Core/Src/dispcolor.c **** }
  84:Core/Src/dispcolor.c **** 
  85:Core/Src/dispcolor.c **** static void DrawLine_Slow(int16_t x1, int16_t y1, int16_t x2, int16_t y2,
  86:Core/Src/dispcolor.c **** 		uint16_t color) {
 147              		.loc 1 86 19 is_stmt 1 view -0
 148              		.cfi_startproc
 149              		@ args = 4, pretend = 0, frame = 16
 150              		@ frame_needed = 0, uses_anonymous_args = 0
 151              		.loc 1 86 19 is_stmt 0 view .LVU24
ARM GAS  C:\Users\kroko\AppData\Local\Temp\ccNEdXH2.s 			page 5


 152 0000 2DE9F04F 		push	{r4, r5, r6, r7, r8, r9, r10, fp, lr}
 153              		.cfi_def_cfa_offset 36
 154              		.cfi_offset 4, -36
 155              		.cfi_offset 5, -32
 156              		.cfi_offset 6, -28
 157              		.cfi_offset 7, -24
 158              		.cfi_offset 8, -20
 159              		.cfi_offset 9, -16
 160              		.cfi_offset 10, -12
 161              		.cfi_offset 11, -8
 162              		.cfi_offset 14, -4
 163 0004 85B0     		sub	sp, sp, #20
 164              		.cfi_def_cfa_offset 56
 165 0006 0546     		mov	r5, r0
 166 0008 0E46     		mov	r6, r1
 167 000a 1746     		mov	r7, r2
 168 000c 9B46     		mov	fp, r3
 169 000e BDF83880 		ldrh	r8, [sp, #56]
  87:Core/Src/dispcolor.c **** 	const int16_t deltaX = abs(x2 - x1);
 170              		.loc 1 87 2 is_stmt 1 view .LVU25
 171              		.loc 1 87 32 is_stmt 0 view .LVU26
 172 0012 121A     		subs	r2, r2, r0
 173              	.LVL9:
 174              		.loc 1 87 25 view .LVU27
 175 0014 002A     		cmp	r2, #0
 176 0016 B8BF     		it	lt
 177 0018 5242     		rsblt	r2, r2, #0
 178              		.loc 1 87 16 view .LVU28
 179 001a 0FFA82F9 		sxth	r9, r2
 180              	.LVL10:
  88:Core/Src/dispcolor.c **** 	const int16_t deltaY = abs(y2 - y1);
 181              		.loc 1 88 2 is_stmt 1 view .LVU29
 182              		.loc 1 88 32 is_stmt 0 view .LVU30
 183 001e 5B1A     		subs	r3, r3, r1
 184              	.LVL11:
 185              		.loc 1 88 25 view .LVU31
 186 0020 002B     		cmp	r3, #0
 187 0022 B8BF     		it	lt
 188 0024 5B42     		rsblt	r3, r3, #0
 189              		.loc 1 88 16 view .LVU32
 190 0026 0FFA83FA 		sxth	r10, r3
 191              	.LVL12:
  89:Core/Src/dispcolor.c **** 	const int16_t signX = x1 < x2 ? 1 : -1;
 192              		.loc 1 89 2 is_stmt 1 view .LVU33
 193              		.loc 1 89 16 is_stmt 0 view .LVU34
 194 002a 8742     		cmp	r7, r0
 195 002c 11DD     		ble	.L17
 196              		.loc 1 89 16 discriminator 1 view .LVU35
 197 002e 0121     		movs	r1, #1
 198              	.LVL13:
 199              		.loc 1 89 16 discriminator 1 view .LVU36
 200 0030 0291     		str	r1, [sp, #8]
 201              	.L11:
 202              	.LVL14:
  90:Core/Src/dispcolor.c **** 	const int16_t signY = y1 < y2 ? 1 : -1;
 203              		.loc 1 90 2 is_stmt 1 view .LVU37
 204              		.loc 1 90 16 is_stmt 0 view .LVU38
ARM GAS  C:\Users\kroko\AppData\Local\Temp\ccNEdXH2.s 			page 6


 205 0032 B345     		cmp	fp, r6
 206 0034 11DD     		ble	.L18
 207              		.loc 1 90 16 discriminator 1 view .LVU39
 208 0036 0121     		movs	r1, #1
 209 0038 0391     		str	r1, [sp, #12]
 210              	.L12:
 211              	.LVL15:
  91:Core/Src/dispcolor.c **** 
  92:Core/Src/dispcolor.c **** 	int16_t error = deltaX - deltaY;
 212              		.loc 1 92 2 is_stmt 1 view .LVU40
 213              		.loc 1 92 25 is_stmt 0 view .LVU41
 214 003a 92B2     		uxth	r2, r2
 215 003c 0092     		str	r2, [sp]
 216 003e 9BB2     		uxth	r3, r3
 217 0040 0193     		str	r3, [sp, #4]
 218 0042 D41A     		subs	r4, r2, r3
 219              		.loc 1 92 10 view .LVU42
 220 0044 24B2     		sxth	r4, r4
 221              	.LVL16:
  93:Core/Src/dispcolor.c **** 
  94:Core/Src/dispcolor.c **** 	dispcolor_DrawPixel(x2, y2, color);
 222              		.loc 1 94 2 is_stmt 1 view .LVU43
 223 0046 4246     		mov	r2, r8
 224 0048 5946     		mov	r1, fp
 225 004a 3846     		mov	r0, r7
 226              	.LVL17:
 227              		.loc 1 94 2 is_stmt 0 view .LVU44
 228 004c FFF7FEFF 		bl	dispcolor_DrawPixel
 229              	.LVL18:
  95:Core/Src/dispcolor.c **** 
  96:Core/Src/dispcolor.c **** 	while (x1 != x2 || y1 != y2) {
 230              		.loc 1 96 2 is_stmt 1 view .LVU45
 231              		.loc 1 96 8 is_stmt 0 view .LVU46
 232 0050 21E0     		b	.L13
 233              	.LVL19:
 234              	.L17:
  89:Core/Src/dispcolor.c **** 	const int16_t signY = y1 < y2 ? 1 : -1;
 235              		.loc 1 89 16 discriminator 2 view .LVU47
 236 0052 4FF0FF31 		mov	r1, #-1
 237              	.LVL20:
  89:Core/Src/dispcolor.c **** 	const int16_t signY = y1 < y2 ? 1 : -1;
 238              		.loc 1 89 16 discriminator 2 view .LVU48
 239 0056 0291     		str	r1, [sp, #8]
 240 0058 EBE7     		b	.L11
 241              	.LVL21:
 242              	.L18:
  90:Core/Src/dispcolor.c **** 
 243              		.loc 1 90 16 discriminator 2 view .LVU49
 244 005a 4FF0FF31 		mov	r1, #-1
 245 005e 0391     		str	r1, [sp, #12]
 246 0060 EBE7     		b	.L12
 247              	.LVL22:
 248              	.L16:
 249              	.LBB2:
  97:Core/Src/dispcolor.c **** 		dispcolor_DrawPixel(x1, y1, color);
 250              		.loc 1 97 3 is_stmt 1 view .LVU50
 251 0062 4246     		mov	r2, r8
ARM GAS  C:\Users\kroko\AppData\Local\Temp\ccNEdXH2.s 			page 7


 252 0064 3146     		mov	r1, r6
 253 0066 2846     		mov	r0, r5
 254 0068 FFF7FEFF 		bl	dispcolor_DrawPixel
 255              	.LVL23:
  98:Core/Src/dispcolor.c **** 		const int16_t error2 = error * 2;
 256              		.loc 1 98 3 view .LVU51
 257              		.loc 1 98 32 is_stmt 0 view .LVU52
 258 006c A2B2     		uxth	r2, r4
 259 006e 5300     		lsls	r3, r2, #1
 260              		.loc 1 98 17 view .LVU53
 261 0070 1BB2     		sxth	r3, r3
 262              	.LVL24:
  99:Core/Src/dispcolor.c **** 
 100:Core/Src/dispcolor.c **** 		if (error2 > -deltaY) {
 263              		.loc 1 100 3 is_stmt 1 view .LVU54
 264              		.loc 1 100 16 is_stmt 0 view .LVU55
 265 0072 CAF10001 		rsb	r1, r10, #0
 266              		.loc 1 100 6 view .LVU56
 267 0076 8B42     		cmp	r3, r1
 268 0078 05DD     		ble	.L14
 101:Core/Src/dispcolor.c **** 			error -= deltaY;
 269              		.loc 1 101 4 is_stmt 1 view .LVU57
 270              		.loc 1 101 10 is_stmt 0 view .LVU58
 271 007a 0199     		ldr	r1, [sp, #4]
 272 007c 521A     		subs	r2, r2, r1
 273 007e 14B2     		sxth	r4, r2
 274              	.LVL25:
 102:Core/Src/dispcolor.c **** 			x1 += signX;
 275              		.loc 1 102 4 is_stmt 1 view .LVU59
 276              		.loc 1 102 7 is_stmt 0 view .LVU60
 277 0080 029A     		ldr	r2, [sp, #8]
 278 0082 1544     		add	r5, r5, r2
 279              	.LVL26:
 280              		.loc 1 102 7 view .LVU61
 281 0084 2DB2     		sxth	r5, r5
 282              	.LVL27:
 283              	.L14:
 103:Core/Src/dispcolor.c **** 		}
 104:Core/Src/dispcolor.c **** 		if (error2 < deltaX) {
 284              		.loc 1 104 3 is_stmt 1 view .LVU62
 285              		.loc 1 104 6 is_stmt 0 view .LVU63
 286 0086 9945     		cmp	r9, r3
 287 0088 05DD     		ble	.L13
 105:Core/Src/dispcolor.c **** 			error += deltaX;
 288              		.loc 1 105 4 is_stmt 1 view .LVU64
 289              		.loc 1 105 10 is_stmt 0 view .LVU65
 290 008a 009B     		ldr	r3, [sp]
 291              	.LVL28:
 292              		.loc 1 105 10 view .LVU66
 293 008c 1C44     		add	r4, r4, r3
 294              	.LVL29:
 295              		.loc 1 105 10 view .LVU67
 296 008e 24B2     		sxth	r4, r4
 297              	.LVL30:
 106:Core/Src/dispcolor.c **** 			y1 += signY;
 298              		.loc 1 106 4 is_stmt 1 view .LVU68
 299              		.loc 1 106 7 is_stmt 0 view .LVU69
ARM GAS  C:\Users\kroko\AppData\Local\Temp\ccNEdXH2.s 			page 8


 300 0090 039B     		ldr	r3, [sp, #12]
 301 0092 1E44     		add	r6, r6, r3
 302              	.LVL31:
 303              		.loc 1 106 7 view .LVU70
 304 0094 36B2     		sxth	r6, r6
 305              	.LVL32:
 306              	.L13:
 307              		.loc 1 106 7 view .LVU71
 308              	.LBE2:
  96:Core/Src/dispcolor.c **** 		dispcolor_DrawPixel(x1, y1, color);
 309              		.loc 1 96 18 is_stmt 1 view .LVU72
 310 0096 BD42     		cmp	r5, r7
 311 0098 E3D1     		bne	.L16
  96:Core/Src/dispcolor.c **** 		dispcolor_DrawPixel(x1, y1, color);
 312              		.loc 1 96 18 is_stmt 0 discriminator 1 view .LVU73
 313 009a 5E45     		cmp	r6, fp
 314 009c E1D1     		bne	.L16
 107:Core/Src/dispcolor.c **** 		}
 108:Core/Src/dispcolor.c **** 	}
 109:Core/Src/dispcolor.c **** }
 315              		.loc 1 109 1 view .LVU74
 316 009e 05B0     		add	sp, sp, #20
 317              		.cfi_def_cfa_offset 36
 318              		@ sp needed
 319 00a0 BDE8F08F 		pop	{r4, r5, r6, r7, r8, r9, r10, fp, pc}
 320              		.loc 1 109 1 view .LVU75
 321              		.cfi_endproc
 322              	.LFE12:
 324              		.section	.text.dispcolor_DrawChar_General,"ax",%progbits
 325              		.align	1
 326              		.syntax unified
 327              		.thumb
 328              		.thumb_func
 330              	dispcolor_DrawChar_General:
 331              	.LVL33:
 332              	.LFB33:
 110:Core/Src/dispcolor.c **** 
 111:Core/Src/dispcolor.c **** void dispcolor_DrawLine(int16_t x1, int16_t y1, int16_t x2, int16_t y2,
 112:Core/Src/dispcolor.c **** 		uint16_t color) {
 113:Core/Src/dispcolor.c **** 	if (x1 == x2) {
 114:Core/Src/dispcolor.c **** 		if (y1 > y2)
 115:Core/Src/dispcolor.c **** 			dispcolor_FillRect(x1, y2, 1, y1 - y2 + 1, color);
 116:Core/Src/dispcolor.c **** 		else
 117:Core/Src/dispcolor.c **** 			dispcolor_FillRect(x1, y1, 1, y2 - y1 + 1, color);
 118:Core/Src/dispcolor.c **** 		return;
 119:Core/Src/dispcolor.c **** 	}
 120:Core/Src/dispcolor.c **** 
 121:Core/Src/dispcolor.c **** 	if (y1 == y2) {
 122:Core/Src/dispcolor.c **** 		if (x1 > x2)
 123:Core/Src/dispcolor.c **** 			dispcolor_FillRect(x2, y1, x1 - x2 + 1, 1, color);
 124:Core/Src/dispcolor.c **** 		else
 125:Core/Src/dispcolor.c **** 			dispcolor_FillRect(x1, y1, x2 - x1 + 1, 1, color);
 126:Core/Src/dispcolor.c **** 		return;
 127:Core/Src/dispcolor.c **** 	}
 128:Core/Src/dispcolor.c **** 
 129:Core/Src/dispcolor.c **** 	DrawLine_Slow(x1, y1, x2, y2, color);
 130:Core/Src/dispcolor.c **** }
ARM GAS  C:\Users\kroko\AppData\Local\Temp\ccNEdXH2.s 			page 9


 131:Core/Src/dispcolor.c **** 
 132:Core/Src/dispcolor.c **** void dispcolor_DrawLine2(int16_t x1, int16_t y1, int16_t x2, int16_t y2,
 133:Core/Src/dispcolor.c **** 		uint16_t color, uint8_t thick) {
 134:Core/Src/dispcolor.c **** 	const int16_t deltaX = abs(x2 - x1);
 135:Core/Src/dispcolor.c **** 	const int16_t deltaY = abs(y2 - y1);
 136:Core/Src/dispcolor.c **** 	const int16_t signX = x1 < x2 ? 1 : -1;
 137:Core/Src/dispcolor.c **** 	const int16_t signY = y1 < y2 ? 1 : -1;
 138:Core/Src/dispcolor.c **** 
 139:Core/Src/dispcolor.c **** 	int16_t error = deltaX - deltaY;
 140:Core/Src/dispcolor.c **** 
 141:Core/Src/dispcolor.c **** 	if (thick > 1)
 142:Core/Src/dispcolor.c **** 		dispcolor_FillCircle(x2, y2, thick >> 1, color);
 143:Core/Src/dispcolor.c **** 	else
 144:Core/Src/dispcolor.c **** 		dispcolor_DrawPixel(x2, y2, color);
 145:Core/Src/dispcolor.c **** 
 146:Core/Src/dispcolor.c **** 	while (x1 != x2 || y1 != y2) {
 147:Core/Src/dispcolor.c **** 		if (thick > 1)
 148:Core/Src/dispcolor.c **** 			dispcolor_FillCircle(x1, y1, thick >> 1, color);
 149:Core/Src/dispcolor.c **** 		else
 150:Core/Src/dispcolor.c **** 			dispcolor_DrawPixel(x1, y1, color);
 151:Core/Src/dispcolor.c **** 
 152:Core/Src/dispcolor.c **** 		const int16_t error2 = error * 2;
 153:Core/Src/dispcolor.c **** 		if (error2 > -deltaY) {
 154:Core/Src/dispcolor.c **** 			error -= deltaY;
 155:Core/Src/dispcolor.c **** 			x1 += signX;
 156:Core/Src/dispcolor.c **** 		}
 157:Core/Src/dispcolor.c **** 		if (error2 < deltaX) {
 158:Core/Src/dispcolor.c **** 			error += deltaX;
 159:Core/Src/dispcolor.c **** 			y1 += signY;
 160:Core/Src/dispcolor.c **** 		}
 161:Core/Src/dispcolor.c **** 	}
 162:Core/Src/dispcolor.c **** }
 163:Core/Src/dispcolor.c **** 
 164:Core/Src/dispcolor.c **** void DrawPixel(int16_t x, int16_t y, uint16_t color, float intensity) {
 165:Core/Src/dispcolor.c **** 	uRGB565 colorRgb;
 166:Core/Src/dispcolor.c **** 	uRGB565 oldColorRgb;
 167:Core/Src/dispcolor.c **** 
 168:Core/Src/dispcolor.c **** 	colorRgb.word = color;
 169:Core/Src/dispcolor.c **** 	oldColorRgb.word = dispcolor_GetPixel(x, y);
 170:Core/Src/dispcolor.c **** 
 171:Core/Src/dispcolor.c **** 	float iintensity = 1 - intensity;
 172:Core/Src/dispcolor.c **** 	uint16_t r = oldColorRgb.rgb.r * iintensity + colorRgb.rgb.r * intensity;
 173:Core/Src/dispcolor.c **** 	uint16_t g = oldColorRgb.rgb.g * iintensity + colorRgb.rgb.g * intensity;
 174:Core/Src/dispcolor.c **** 	uint16_t b = oldColorRgb.rgb.b * iintensity + colorRgb.rgb.b * intensity;
 175:Core/Src/dispcolor.c **** 
 176:Core/Src/dispcolor.c **** 	uRGB565 newColorRgb;
 177:Core/Src/dispcolor.c **** 	newColorRgb.rgb.r = r;
 178:Core/Src/dispcolor.c **** 	newColorRgb.rgb.g = g;
 179:Core/Src/dispcolor.c **** 	newColorRgb.rgb.b = b;
 180:Core/Src/dispcolor.c **** 	dispcolor_DrawPixel(x, y, newColorRgb.word);
 181:Core/Src/dispcolor.c **** }
 182:Core/Src/dispcolor.c **** 
 183:Core/Src/dispcolor.c **** // integer part of x
 184:Core/Src/dispcolor.c **** int ipart(float x) {
 185:Core/Src/dispcolor.c **** 	return (int) x;
 186:Core/Src/dispcolor.c **** }
 187:Core/Src/dispcolor.c **** 
ARM GAS  C:\Users\kroko\AppData\Local\Temp\ccNEdXH2.s 			page 10


 188:Core/Src/dispcolor.c **** // fractional part of x
 189:Core/Src/dispcolor.c **** float fpart(float x) {
 190:Core/Src/dispcolor.c **** 	return x - (int) x;
 191:Core/Src/dispcolor.c **** }
 192:Core/Src/dispcolor.c **** 
 193:Core/Src/dispcolor.c **** float rfpart(float x) {
 194:Core/Src/dispcolor.c **** 	return 1 - fpart(x);
 195:Core/Src/dispcolor.c **** }
 196:Core/Src/dispcolor.c **** 
 197:Core/Src/dispcolor.c **** void swap(int16_t *a, int16_t *b) {
 198:Core/Src/dispcolor.c **** 	int16_t temp = *a;
 199:Core/Src/dispcolor.c **** 	*a = *b;
 200:Core/Src/dispcolor.c **** 	*b = temp;
 201:Core/Src/dispcolor.c **** }
 202:Core/Src/dispcolor.c **** 
 203:Core/Src/dispcolor.c **** static void DrawLine_Slow_Wu(int16_t x1, int16_t y1, int16_t x2, int16_t y2,
 204:Core/Src/dispcolor.c **** 		uint16_t color) {
 205:Core/Src/dispcolor.c **** 	uint8_t steep = abs(y2 - y1) > abs(x2 - x1) ? 1 : 0;
 206:Core/Src/dispcolor.c **** 	if (steep) {
 207:Core/Src/dispcolor.c **** 		swap(&x1, &y1);
 208:Core/Src/dispcolor.c **** 		swap(&x2, &y2);
 209:Core/Src/dispcolor.c **** 	}
 210:Core/Src/dispcolor.c **** 	if (x1 > x2) {
 211:Core/Src/dispcolor.c **** 		swap(&x1, &x2);
 212:Core/Src/dispcolor.c **** 		swap(&y1, &y2);
 213:Core/Src/dispcolor.c **** 	}
 214:Core/Src/dispcolor.c **** 
 215:Core/Src/dispcolor.c **** 	float dx = x2 - x1;
 216:Core/Src/dispcolor.c **** 	float dy = y2 - y1;
 217:Core/Src/dispcolor.c **** 	float gradient = dx == 0 ? 1 : dy / dx;
 218:Core/Src/dispcolor.c **** 
 219:Core/Src/dispcolor.c **** 	// handle first endpoint
 220:Core/Src/dispcolor.c **** 	float xend = round(x1);
 221:Core/Src/dispcolor.c **** 	float yend = gradient * (xend - x1) + y1;
 222:Core/Src/dispcolor.c **** 	float xgap = rfpart(x1 + 0.5);
 223:Core/Src/dispcolor.c **** 	int16_t xpxl1 = xend; // this will be used in the main loop
 224:Core/Src/dispcolor.c **** 	int16_t ypxl1 = ipart(yend);
 225:Core/Src/dispcolor.c **** 	if (steep) {
 226:Core/Src/dispcolor.c **** 		DrawPixel(ypxl1, xpxl1, color, rfpart(yend) * xgap);
 227:Core/Src/dispcolor.c **** 		DrawPixel(ypxl1 + 1, xpxl1, color, fpart(yend) * xgap);
 228:Core/Src/dispcolor.c **** 	} else {
 229:Core/Src/dispcolor.c **** 		DrawPixel(xpxl1, ypxl1, color, rfpart(yend) * xgap);
 230:Core/Src/dispcolor.c **** 		DrawPixel(xpxl1, ypxl1 + 1, color, fpart(yend) * xgap);
 231:Core/Src/dispcolor.c **** 	}
 232:Core/Src/dispcolor.c **** 
 233:Core/Src/dispcolor.c **** 	float intery = yend + gradient; // first y-intersection for the main loop
 234:Core/Src/dispcolor.c **** 
 235:Core/Src/dispcolor.c **** 	// handle second endpoint
 236:Core/Src/dispcolor.c **** 	xend = round(x2);
 237:Core/Src/dispcolor.c **** 	yend = gradient * (xend - x2) + y2;
 238:Core/Src/dispcolor.c **** 	xgap = fpart(x2 + 0.5);
 239:Core/Src/dispcolor.c **** 	int16_t xpxl2 = xend; //this will be used in the main loop
 240:Core/Src/dispcolor.c **** 	int16_t ypxl2 = ipart(yend);
 241:Core/Src/dispcolor.c **** 
 242:Core/Src/dispcolor.c **** 	if (steep) {
 243:Core/Src/dispcolor.c **** 		DrawPixel(ypxl2, xpxl2, color, rfpart(yend) * xgap);
 244:Core/Src/dispcolor.c **** 		DrawPixel(ypxl2 + 1, xpxl2, color, fpart(yend) * xgap);
ARM GAS  C:\Users\kroko\AppData\Local\Temp\ccNEdXH2.s 			page 11


 245:Core/Src/dispcolor.c **** 	} else {
 246:Core/Src/dispcolor.c **** 		DrawPixel(xpxl2, ypxl2, color, rfpart(yend) * xgap);
 247:Core/Src/dispcolor.c **** 		DrawPixel(xpxl2, ypxl2 + 1, color, fpart(yend) * xgap);
 248:Core/Src/dispcolor.c **** 	}
 249:Core/Src/dispcolor.c **** 
 250:Core/Src/dispcolor.c **** 	// main loop
 251:Core/Src/dispcolor.c **** 	if (steep) {
 252:Core/Src/dispcolor.c **** 		for (int16_t x = xpxl1 + 1; x <= xpxl2 - 1; x++) {
 253:Core/Src/dispcolor.c **** 			DrawPixel(ipart(intery), x, color, rfpart(intery));
 254:Core/Src/dispcolor.c **** 			DrawPixel(ipart(intery) + 1, x, color, fpart(intery));
 255:Core/Src/dispcolor.c **** 			intery += gradient;
 256:Core/Src/dispcolor.c **** 		}
 257:Core/Src/dispcolor.c **** 	} else {
 258:Core/Src/dispcolor.c **** 		for (int16_t x = xpxl1 + 1; x <= xpxl2 - 1; x++) {
 259:Core/Src/dispcolor.c **** 			DrawPixel(x, ipart(intery), color, rfpart(intery));
 260:Core/Src/dispcolor.c **** 			DrawPixel(x, ipart(intery) + 1, color, fpart(intery));
 261:Core/Src/dispcolor.c **** 			intery += gradient;
 262:Core/Src/dispcolor.c **** 		}
 263:Core/Src/dispcolor.c **** 	}
 264:Core/Src/dispcolor.c **** }
 265:Core/Src/dispcolor.c **** 
 266:Core/Src/dispcolor.c **** void dispcolor_DrawLine_Wu(int16_t x1, int16_t y1, int16_t x2, int16_t y2,
 267:Core/Src/dispcolor.c **** 		uint16_t color) {
 268:Core/Src/dispcolor.c **** 	if (x1 == x2) {
 269:Core/Src/dispcolor.c **** 		if (y1 > y2)
 270:Core/Src/dispcolor.c **** 			dispcolor_FillRect(x1, y2, 1, y1 - y2 + 1, color);
 271:Core/Src/dispcolor.c **** 		else
 272:Core/Src/dispcolor.c **** 			dispcolor_FillRect(x1, y1, 1, y2 - y1 + 1, color);
 273:Core/Src/dispcolor.c **** 		return;
 274:Core/Src/dispcolor.c **** 	}
 275:Core/Src/dispcolor.c **** 
 276:Core/Src/dispcolor.c **** 	if (y1 == y2) {
 277:Core/Src/dispcolor.c **** 		if (x1 > x2)
 278:Core/Src/dispcolor.c **** 			dispcolor_FillRect(x2, y1, x1 - x2 + 1, 1, color);
 279:Core/Src/dispcolor.c **** 		else
 280:Core/Src/dispcolor.c **** 			dispcolor_FillRect(x1, y1, x2 - x1 + 1, 1, color);
 281:Core/Src/dispcolor.c **** 		return;
 282:Core/Src/dispcolor.c **** 	}
 283:Core/Src/dispcolor.c **** 
 284:Core/Src/dispcolor.c **** 	DrawLine_Slow_Wu(x1, y1, x2, y2, color);
 285:Core/Src/dispcolor.c **** }
 286:Core/Src/dispcolor.c **** 
 287:Core/Src/dispcolor.c **** void dispcolor_DrawRectangle(int16_t x1, int16_t y1, int16_t x2, int16_t y2,
 288:Core/Src/dispcolor.c **** 		uint16_t color) {
 289:Core/Src/dispcolor.c **** 	dispcolor_DrawLine(x1, y1, x1, y2, color);
 290:Core/Src/dispcolor.c **** 	dispcolor_DrawLine(x2, y1, x2, y2, color);
 291:Core/Src/dispcolor.c **** 	dispcolor_DrawLine(x1, y1, x2, y1, color);
 292:Core/Src/dispcolor.c **** 	dispcolor_DrawLine(x1, y2, x2, y2, color);
 293:Core/Src/dispcolor.c **** }
 294:Core/Src/dispcolor.c **** 
 295:Core/Src/dispcolor.c **** void dispcolor_FillRectangle(int16_t x1, int16_t y1, int16_t x2, int16_t y2,
 296:Core/Src/dispcolor.c **** 		uint16_t fillcolor) {
 297:Core/Src/dispcolor.c **** 	if (x1 > x2)
 298:Core/Src/dispcolor.c **** 		SwapInt16Values(&x1, &x2);
 299:Core/Src/dispcolor.c **** 	if (y1 > y2)
 300:Core/Src/dispcolor.c **** 		SwapInt16Values(&y1, &y2);
 301:Core/Src/dispcolor.c **** 
ARM GAS  C:\Users\kroko\AppData\Local\Temp\ccNEdXH2.s 			page 12


 302:Core/Src/dispcolor.c **** 	dispcolor_FillRect(x1, y1, x2 - x1, y2 - y1, fillcolor);
 303:Core/Src/dispcolor.c **** }
 304:Core/Src/dispcolor.c **** 
 305:Core/Src/dispcolor.c **** void dispcolor_DrawTriangle(int16_t x0, int16_t y0, int16_t x1, int16_t y1,
 306:Core/Src/dispcolor.c **** 		int16_t x2, int16_t y2, uint16_t color) {
 307:Core/Src/dispcolor.c **** 	dispcolor_DrawLine(x0, y0, x1, y1, color);
 308:Core/Src/dispcolor.c **** 	dispcolor_DrawLine(x1, y1, x2, y2, color);
 309:Core/Src/dispcolor.c **** 	dispcolor_DrawLine(x2, y2, x0, y0, color);
 310:Core/Src/dispcolor.c **** }
 311:Core/Src/dispcolor.c **** 
 312:Core/Src/dispcolor.c **** void dispcolor_DrawTriangle_Wu(int16_t x0, int16_t y0, int16_t x1, int16_t y1,
 313:Core/Src/dispcolor.c **** 		int16_t x2, int16_t y2, uint16_t color) {
 314:Core/Src/dispcolor.c **** 	dispcolor_DrawLine_Wu(x0, y0, x1, y1, color);
 315:Core/Src/dispcolor.c **** 	dispcolor_DrawLine_Wu(x1, y1, x2, y2, color);
 316:Core/Src/dispcolor.c **** 	dispcolor_DrawLine_Wu(x2, y2, x0, y0, color);
 317:Core/Src/dispcolor.c **** }
 318:Core/Src/dispcolor.c **** 
 319:Core/Src/dispcolor.c **** void dispcolor_FillTriangle(int16_t x0, int16_t y0, int16_t x1, int16_t y1,
 320:Core/Src/dispcolor.c **** 		int16_t x2, int16_t y2, uint16_t color) {
 321:Core/Src/dispcolor.c **** 	int16_t a, b, y, last;
 322:Core/Src/dispcolor.c **** 
 323:Core/Src/dispcolor.c **** 	// Sort coordinates by Y order (y2 >= y1 >= y0)
 324:Core/Src/dispcolor.c **** 	if (y0 > y1) {
 325:Core/Src/dispcolor.c **** 		SwapInt16Values(&y0, &y1);
 326:Core/Src/dispcolor.c **** 		SwapInt16Values(&x0, &x1);
 327:Core/Src/dispcolor.c **** 	}
 328:Core/Src/dispcolor.c **** 	if (y1 > y2) {
 329:Core/Src/dispcolor.c **** 		SwapInt16Values(&y2, &y1);
 330:Core/Src/dispcolor.c **** 		SwapInt16Values(&x2, &x1);
 331:Core/Src/dispcolor.c **** 	}
 332:Core/Src/dispcolor.c **** 	if (y0 > y1) {
 333:Core/Src/dispcolor.c **** 		SwapInt16Values(&y0, &y1);
 334:Core/Src/dispcolor.c **** 		SwapInt16Values(&x0, &x1);
 335:Core/Src/dispcolor.c **** 	}
 336:Core/Src/dispcolor.c **** 
 337:Core/Src/dispcolor.c **** 	if (y0 == y2)	  // Handle awkward all-on-same-line case as its own thing
 338:Core/Src/dispcolor.c **** 			{
 339:Core/Src/dispcolor.c **** 		a = b = x0;
 340:Core/Src/dispcolor.c **** 		if (x1 < a)
 341:Core/Src/dispcolor.c **** 			a = x1;
 342:Core/Src/dispcolor.c **** 		else if (x1 > b)
 343:Core/Src/dispcolor.c **** 			b = x1;
 344:Core/Src/dispcolor.c **** 		if (x2 < a)
 345:Core/Src/dispcolor.c **** 			a = x2;
 346:Core/Src/dispcolor.c **** 		else if (x2 > b)
 347:Core/Src/dispcolor.c **** 			b = x2;
 348:Core/Src/dispcolor.c **** 
 349:Core/Src/dispcolor.c **** 		dispcolor_FillRect(a, y0, b - a + 1, 1, color);
 350:Core/Src/dispcolor.c **** 		return;
 351:Core/Src/dispcolor.c **** 	}
 352:Core/Src/dispcolor.c **** 
 353:Core/Src/dispcolor.c **** 	int16_t dx01 = x1 - x0, dy01 = y1 - y0, dx02 = x2 - x0, dy02 = y2 - y0,
 354:Core/Src/dispcolor.c **** 			dx12 = x2 - x1, dy12 = y2 - y1;
 355:Core/Src/dispcolor.c **** 	int32_t sa = 0, sb = 0;
 356:Core/Src/dispcolor.c **** 
 357:Core/Src/dispcolor.c **** 	// For upper part of triangle, find scanline crossings for segments
 358:Core/Src/dispcolor.c **** 	// 0-1 and 0-2.  If y1=y2 (flat-bottomed triangle), the scanline y1
ARM GAS  C:\Users\kroko\AppData\Local\Temp\ccNEdXH2.s 			page 13


 359:Core/Src/dispcolor.c **** 	// is included here (and second loop will be skipped, avoiding a /0
 360:Core/Src/dispcolor.c **** 	// error there), otherwise scanline y1 is skipped here and handled
 361:Core/Src/dispcolor.c **** 	// in the second loop...which also avoids a /0 error here if y0=y1
 362:Core/Src/dispcolor.c **** 	// (flat-topped triangle).
 363:Core/Src/dispcolor.c **** 	if (y1 == y2)
 364:Core/Src/dispcolor.c **** 		last = y1; // Include y1 scanline
 365:Core/Src/dispcolor.c **** 	else
 366:Core/Src/dispcolor.c **** 		last = y1 - 1; // Skip it
 367:Core/Src/dispcolor.c **** 
 368:Core/Src/dispcolor.c **** 	for (y = y0; y <= last; y++) {
 369:Core/Src/dispcolor.c **** 		a = x0 + sa / dy01;
 370:Core/Src/dispcolor.c **** 		b = x0 + sb / dy02;
 371:Core/Src/dispcolor.c **** 		sa += dx01;
 372:Core/Src/dispcolor.c **** 		sb += dx02;
 373:Core/Src/dispcolor.c **** 
 374:Core/Src/dispcolor.c **** 		if (a > b)
 375:Core/Src/dispcolor.c **** 			SwapInt16Values(&a, &b);
 376:Core/Src/dispcolor.c **** 
 377:Core/Src/dispcolor.c **** 		dispcolor_FillRect(a, y, b - a + 1, 1, color);
 378:Core/Src/dispcolor.c **** 	}
 379:Core/Src/dispcolor.c **** 
 380:Core/Src/dispcolor.c **** 	// For lower part of triangle, find scanline crossings for segments 0-2 and 1-2.  This loop is ski
 381:Core/Src/dispcolor.c **** 	sa = (int32_t) dx12 * (y - y1);
 382:Core/Src/dispcolor.c **** 	sb = (int32_t) dx02 * (y - y0);
 383:Core/Src/dispcolor.c **** 	for (; y <= y2; y++) {
 384:Core/Src/dispcolor.c **** 		a = x1 + sa / dy12;
 385:Core/Src/dispcolor.c **** 		b = x0 + sb / dy02;
 386:Core/Src/dispcolor.c **** 		sa += dx12;
 387:Core/Src/dispcolor.c **** 		sb += dx02;
 388:Core/Src/dispcolor.c **** 
 389:Core/Src/dispcolor.c **** 		if (a > b)
 390:Core/Src/dispcolor.c **** 			SwapInt16Values(&a, &b);
 391:Core/Src/dispcolor.c **** 
 392:Core/Src/dispcolor.c **** 		dispcolor_FillRect(a, y, b - a + 1, 1, color);
 393:Core/Src/dispcolor.c **** 	}
 394:Core/Src/dispcolor.c **** }
 395:Core/Src/dispcolor.c **** 
 396:Core/Src/dispcolor.c **** void dispcolor_DrawCircle(int16_t x0, int16_t y0, int16_t radius,
 397:Core/Src/dispcolor.c **** 		uint16_t color, uint8_t correction) {
 398:Core/Src/dispcolor.c **** 	int x = 0;
 399:Core/Src/dispcolor.c **** 	int y = radius;
 400:Core/Src/dispcolor.c **** 	int delta = 1 - 2 * radius;
 401:Core/Src/dispcolor.c **** 	int error = 0;
 402:Core/Src/dispcolor.c **** 
 403:Core/Src/dispcolor.c **** 	if (correction)
 404:Core/Src/dispcolor.c **** 		correction = 1;
 405:Core/Src/dispcolor.c **** 
 406:Core/Src/dispcolor.c **** 	while (y >= 0) {
 407:Core/Src/dispcolor.c **** 		dispcolor_DrawPixel(x0 + x, y0 + y + correction, color);
 408:Core/Src/dispcolor.c **** 		dispcolor_DrawPixel(x0 + x, y0 - y, color);
 409:Core/Src/dispcolor.c **** 		dispcolor_DrawPixel(x0 - x + correction, y0 + y + correction, color);
 410:Core/Src/dispcolor.c **** 		dispcolor_DrawPixel(x0 - x + correction, y0 - y, color);
 411:Core/Src/dispcolor.c **** 		error = 2 * (delta + y) - 1;
 412:Core/Src/dispcolor.c **** 
 413:Core/Src/dispcolor.c **** 		if (delta < 0 && error <= 0) {
 414:Core/Src/dispcolor.c **** 			++x;
 415:Core/Src/dispcolor.c **** 			delta += 2 * x + 1;
ARM GAS  C:\Users\kroko\AppData\Local\Temp\ccNEdXH2.s 			page 14


 416:Core/Src/dispcolor.c **** 			continue;
 417:Core/Src/dispcolor.c **** 		}
 418:Core/Src/dispcolor.c **** 
 419:Core/Src/dispcolor.c **** 		error = 2 * (delta - x) - 1;
 420:Core/Src/dispcolor.c **** 
 421:Core/Src/dispcolor.c **** 		if (delta > 0 && error > 0) {
 422:Core/Src/dispcolor.c **** 			--y;
 423:Core/Src/dispcolor.c **** 			delta += 1 - 2 * y;
 424:Core/Src/dispcolor.c **** 			continue;
 425:Core/Src/dispcolor.c **** 		}
 426:Core/Src/dispcolor.c **** 
 427:Core/Src/dispcolor.c **** 		++x;
 428:Core/Src/dispcolor.c **** 		delta += 2 * (x - y);
 429:Core/Src/dispcolor.c **** 		--y;
 430:Core/Src/dispcolor.c **** 	}
 431:Core/Src/dispcolor.c **** }
 432:Core/Src/dispcolor.c **** 
 433:Core/Src/dispcolor.c **** void dispcolor_DrawCircle_Wu(int16_t x0, int16_t y0, int16_t radius,
 434:Core/Src/dispcolor.c **** 		uint16_t color) {
 435:Core/Src/dispcolor.c **** 	int16_t i = 0;
 436:Core/Src/dispcolor.c **** 	int16_t j = radius;
 437:Core/Src/dispcolor.c **** 	float last_fade_amount = 0;
 438:Core/Src/dispcolor.c **** 
 439:Core/Src/dispcolor.c **** 	while (i < j) {
 440:Core/Src/dispcolor.c **** 		float height = sqrt(fmax(radius * radius - i * i, 0));
 441:Core/Src/dispcolor.c **** 		float fade_amount = ceil(height) - height;
 442:Core/Src/dispcolor.c **** 
 443:Core/Src/dispcolor.c **** 		if (fade_amount < last_fade_amount)
 444:Core/Src/dispcolor.c **** 			j--;	// Opaqueness reset so drop down a row
 445:Core/Src/dispcolor.c **** 
 446:Core/Src/dispcolor.c **** 		last_fade_amount = fade_amount;
 447:Core/Src/dispcolor.c **** 
 448:Core/Src/dispcolor.c **** 		// We're fading out the current j row, and fading in the next one down.
 449:Core/Src/dispcolor.c **** 		DrawPixel(x0 + i, y0 - j, color, 1 - fade_amount);
 450:Core/Src/dispcolor.c **** 		DrawPixel(x0 + i, y0 - j + 1, color, fade_amount);
 451:Core/Src/dispcolor.c **** 
 452:Core/Src/dispcolor.c **** 		DrawPixel(x0 + j, y0 - i, color, 1 - fade_amount);
 453:Core/Src/dispcolor.c **** 		DrawPixel(x0 + j - 1, y0 - i, color, fade_amount);
 454:Core/Src/dispcolor.c **** 
 455:Core/Src/dispcolor.c **** 		DrawPixel(x0 + j, y0 + i, color, 1 - fade_amount);
 456:Core/Src/dispcolor.c **** 		DrawPixel(x0 + j - 1, y0 + i, color, fade_amount);
 457:Core/Src/dispcolor.c **** 
 458:Core/Src/dispcolor.c **** 		DrawPixel(x0 + i, y0 + j, color, 1 - fade_amount);
 459:Core/Src/dispcolor.c **** 		DrawPixel(x0 + i, y0 + j - 1, color, fade_amount);
 460:Core/Src/dispcolor.c **** 
 461:Core/Src/dispcolor.c **** 		DrawPixel(x0 - i, y0 + j, color, 1 - fade_amount);
 462:Core/Src/dispcolor.c **** 		DrawPixel(x0 - i, y0 + j - 1, color, fade_amount);
 463:Core/Src/dispcolor.c **** 
 464:Core/Src/dispcolor.c **** 		DrawPixel(x0 - j, y0 + i, color, 1 - fade_amount);
 465:Core/Src/dispcolor.c **** 		DrawPixel(x0 - j + 1, y0 + i, color, fade_amount);
 466:Core/Src/dispcolor.c **** 
 467:Core/Src/dispcolor.c **** 		DrawPixel(x0 - j, y0 - i, color, 1 - fade_amount);
 468:Core/Src/dispcolor.c **** 		DrawPixel(x0 - j + 1, y0 - i, color, fade_amount);
 469:Core/Src/dispcolor.c **** 
 470:Core/Src/dispcolor.c **** 		DrawPixel(x0 - i, y0 - j, color, 1 - fade_amount);
 471:Core/Src/dispcolor.c **** 		DrawPixel(x0 - i, y0 - j + 1, color, fade_amount);
 472:Core/Src/dispcolor.c **** 
ARM GAS  C:\Users\kroko\AppData\Local\Temp\ccNEdXH2.s 			page 15


 473:Core/Src/dispcolor.c **** 		i++;
 474:Core/Src/dispcolor.c **** 	}
 475:Core/Src/dispcolor.c **** }
 476:Core/Src/dispcolor.c **** 
 477:Core/Src/dispcolor.c **** void dispcolor_FillCircle(int16_t x0, int16_t y0, int16_t radius,
 478:Core/Src/dispcolor.c **** 		uint16_t color) {
 479:Core/Src/dispcolor.c **** 	int x = 0;
 480:Core/Src/dispcolor.c **** 	int y = radius;
 481:Core/Src/dispcolor.c **** 	int delta = 1 - 2 * radius;
 482:Core/Src/dispcolor.c **** 	int error = 0;
 483:Core/Src/dispcolor.c **** 
 484:Core/Src/dispcolor.c **** 	while (y >= 0) {
 485:Core/Src/dispcolor.c **** 		dispcolor_DrawLine(x0 + x, y0 - y, x0 + x, y0 + y, color);
 486:Core/Src/dispcolor.c **** 		dispcolor_DrawLine(x0 - x, y0 - y, x0 - x, y0 + y, color);
 487:Core/Src/dispcolor.c **** 		error = 2 * (delta + y) - 1;
 488:Core/Src/dispcolor.c **** 
 489:Core/Src/dispcolor.c **** 		if (delta < 0 && error <= 0) {
 490:Core/Src/dispcolor.c **** 			++x;
 491:Core/Src/dispcolor.c **** 			delta += 2 * x + 1;
 492:Core/Src/dispcolor.c **** 			continue;
 493:Core/Src/dispcolor.c **** 		}
 494:Core/Src/dispcolor.c **** 
 495:Core/Src/dispcolor.c **** 		error = 2 * (delta - x) - 1;
 496:Core/Src/dispcolor.c **** 
 497:Core/Src/dispcolor.c **** 		if (delta > 0 && error > 0) {
 498:Core/Src/dispcolor.c **** 			--y;
 499:Core/Src/dispcolor.c **** 			delta += 1 - 2 * y;
 500:Core/Src/dispcolor.c **** 			continue;
 501:Core/Src/dispcolor.c **** 		}
 502:Core/Src/dispcolor.c **** 
 503:Core/Src/dispcolor.c **** 		++x;
 504:Core/Src/dispcolor.c **** 		delta += 2 * (x - y);
 505:Core/Src/dispcolor.c **** 		--y;
 506:Core/Src/dispcolor.c **** 	}
 507:Core/Src/dispcolor.c **** }
 508:Core/Src/dispcolor.c **** 
 509:Core/Src/dispcolor.c **** void dispcolor_FillCircleWu(int16_t x0, int16_t y0, int16_t radius,
 510:Core/Src/dispcolor.c **** 		uint16_t color) {
 511:Core/Src/dispcolor.c **** 	if (radius > 1)
 512:Core/Src/dispcolor.c **** 		dispcolor_FillCircle(x0, y0, radius - 1, color);
 513:Core/Src/dispcolor.c **** 	dispcolor_DrawCircle_Wu(x0, y0, radius, color);
 514:Core/Src/dispcolor.c **** }
 515:Core/Src/dispcolor.c **** 
 516:Core/Src/dispcolor.c **** void dispcolor_DrawArc(int16_t x0, int16_t y0, int16_t radius,
 517:Core/Src/dispcolor.c **** 		int16_t startAngle, int16_t endAngle, uint16_t color, uint8_t thick) {
 518:Core/Src/dispcolor.c **** 	int16_t xLast = -1, yLast = -1;
 519:Core/Src/dispcolor.c **** 	startAngle -= 90;
 520:Core/Src/dispcolor.c **** 	endAngle -= 90;
 521:Core/Src/dispcolor.c **** 
 522:Core/Src/dispcolor.c **** 	for (int16_t angle = startAngle; angle <= endAngle; angle += 2) {
 523:Core/Src/dispcolor.c **** 		float angleRad = (float) angle * PI / 180;
 524:Core/Src/dispcolor.c **** 		int x = cos(angleRad) * radius + x0;
 525:Core/Src/dispcolor.c **** 		int y = sin(angleRad) * radius + y0;
 526:Core/Src/dispcolor.c **** 
 527:Core/Src/dispcolor.c **** 		if (xLast == -1 || yLast == -1) {
 528:Core/Src/dispcolor.c **** 			xLast = x;
 529:Core/Src/dispcolor.c **** 			yLast = y;
ARM GAS  C:\Users\kroko\AppData\Local\Temp\ccNEdXH2.s 			page 16


 530:Core/Src/dispcolor.c **** 			continue;
 531:Core/Src/dispcolor.c **** 		}
 532:Core/Src/dispcolor.c **** 
 533:Core/Src/dispcolor.c **** 		if (thick > 1)
 534:Core/Src/dispcolor.c **** 			dispcolor_DrawLine2(xLast, yLast, x, y, color, thick);
 535:Core/Src/dispcolor.c **** 		else
 536:Core/Src/dispcolor.c **** 			dispcolor_DrawLine(xLast, yLast, x, y, color);
 537:Core/Src/dispcolor.c **** 
 538:Core/Src/dispcolor.c **** 		xLast = x;
 539:Core/Src/dispcolor.c **** 		yLast = y;
 540:Core/Src/dispcolor.c **** 	}
 541:Core/Src/dispcolor.c **** }
 542:Core/Src/dispcolor.c **** 
 543:Core/Src/dispcolor.c **** void dispcolor_DrawArc_Wu(int16_t x0, int16_t y0, int16_t radius,
 544:Core/Src/dispcolor.c **** 		int16_t startAngle, int16_t endAngle, uint16_t color, uint8_t thick) {
 545:Core/Src/dispcolor.c **** 	int16_t xLast = -1, yLast = -1;
 546:Core/Src/dispcolor.c **** 	startAngle -= 90;
 547:Core/Src/dispcolor.c **** 	endAngle -= 90;
 548:Core/Src/dispcolor.c **** 
 549:Core/Src/dispcolor.c **** 	for (int16_t angle = startAngle; angle <= endAngle; angle += 1)	//1)//6)
 550:Core/Src/dispcolor.c **** 			{
 551:Core/Src/dispcolor.c **** 		float angleRad = (float) angle * PI / 180;
 552:Core/Src/dispcolor.c **** 		int x = cos(angleRad) * radius + x0;
 553:Core/Src/dispcolor.c **** 		int y = sin(angleRad) * radius + y0;
 554:Core/Src/dispcolor.c **** 
 555:Core/Src/dispcolor.c **** 		if (xLast == -1 || yLast == -1) {
 556:Core/Src/dispcolor.c **** 			xLast = x;
 557:Core/Src/dispcolor.c **** 			yLast = y;
 558:Core/Src/dispcolor.c **** 			continue;
 559:Core/Src/dispcolor.c **** 		}
 560:Core/Src/dispcolor.c **** 
 561:Core/Src/dispcolor.c **** 		if (thick > 1)
 562:Core/Src/dispcolor.c **** 			dispcolor_DrawCircle_Wu(x, y, thick / 2, color);
 563:Core/Src/dispcolor.c **** 		else
 564:Core/Src/dispcolor.c **** 			dispcolor_DrawLine_Wu(xLast, yLast, x, y, color);
 565:Core/Src/dispcolor.c **** 
 566:Core/Src/dispcolor.c **** 		xLast = x;
 567:Core/Src/dispcolor.c **** 		yLast = y;
 568:Core/Src/dispcolor.c **** 	}
 569:Core/Src/dispcolor.c **** }
 570:Core/Src/dispcolor.c **** 
 571:Core/Src/dispcolor.c **** static uint8_t dispcolor_DrawChar_General(int16_t X, int16_t Y, uint8_t FontID,
 572:Core/Src/dispcolor.c **** 		char Char, uint16_t TextColor, uint16_t BgColor,
 573:Core/Src/dispcolor.c **** 		uint8_t TransparentBg) {
 333              		.loc 1 573 26 is_stmt 1 view -0
 334              		.cfi_startproc
 335              		@ args = 12, pretend = 0, frame = 16
 336              		@ frame_needed = 0, uses_anonymous_args = 0
 337              		.loc 1 573 26 is_stmt 0 view .LVU77
 338 0000 2DE9F04F 		push	{r4, r5, r6, r7, r8, r9, r10, fp, lr}
 339              		.cfi_def_cfa_offset 36
 340              		.cfi_offset 4, -36
 341              		.cfi_offset 5, -32
 342              		.cfi_offset 6, -28
 343              		.cfi_offset 7, -24
 344              		.cfi_offset 8, -20
 345              		.cfi_offset 9, -16
ARM GAS  C:\Users\kroko\AppData\Local\Temp\ccNEdXH2.s 			page 17


 346              		.cfi_offset 10, -12
 347              		.cfi_offset 11, -8
 348              		.cfi_offset 14, -4
 349 0004 85B0     		sub	sp, sp, #20
 350              		.cfi_def_cfa_offset 56
 351 0006 8046     		mov	r8, r0
 352 0008 8946     		mov	r9, r1
 353 000a 1446     		mov	r4, r2
 354 000c 0392     		str	r2, [sp, #12]
 355 000e BDF838A0 		ldrh	r10, [sp, #56]
 356 0012 BDF83C10 		ldrh	r1, [sp, #60]
 357              	.LVL34:
 358              		.loc 1 573 26 view .LVU78
 359 0016 0191     		str	r1, [sp, #4]
 360 0018 9DF84070 		ldrb	r7, [sp, #64]	@ zero_extendqisi2
 574:Core/Src/dispcolor.c **** 
 575:Core/Src/dispcolor.c **** 	uint8_t *pCharTable = font_GetFontStruct(FontID, Char);
 361              		.loc 1 575 2 is_stmt 1 view .LVU79
 362              		.loc 1 575 24 is_stmt 0 view .LVU80
 363 001c 1946     		mov	r1, r3
 364 001e 1046     		mov	r0, r2
 365              	.LVL35:
 366              		.loc 1 575 24 view .LVU81
 367 0020 FFF7FEFF 		bl	font_GetFontStruct
 368              	.LVL36:
 369              		.loc 1 575 24 view .LVU82
 370 0024 0646     		mov	r6, r0
 371              	.LVL37:
 576:Core/Src/dispcolor.c **** 	uint8_t CharWidth = font_GetCharWidth(pCharTable);
 372              		.loc 1 576 2 is_stmt 1 view .LVU83
 373              		.loc 1 576 22 is_stmt 0 view .LVU84
 374 0026 FFF7FEFF 		bl	font_GetCharWidth
 375              	.LVL38:
 376              		.loc 1 576 22 view .LVU85
 377 002a 0546     		mov	r5, r0
 378              	.LVL39:
 577:Core/Src/dispcolor.c **** 	uint8_t CharHeight = font_GetCharHeight(pCharTable);
 379              		.loc 1 577 2 is_stmt 1 view .LVU86
 380              		.loc 1 577 23 is_stmt 0 view .LVU87
 381 002c 3046     		mov	r0, r6
 382 002e FFF7FEFF 		bl	font_GetCharHeight
 383              	.LVL40:
 384 0032 0290     		str	r0, [sp, #8]
 385              	.LVL41:
 578:Core/Src/dispcolor.c **** 	pCharTable += 2;
 386              		.loc 1 578 2 is_stmt 1 view .LVU88
 387              		.loc 1 578 13 is_stmt 0 view .LVU89
 388 0034 0236     		adds	r6, r6, #2
 389              	.LVL42:
 579:Core/Src/dispcolor.c **** 
 580:Core/Src/dispcolor.c **** 	if (FontID == FONTID_6X8M) {
 390              		.loc 1 580 2 is_stmt 1 view .LVU90
 391              		.loc 1 580 5 is_stmt 0 view .LVU91
 392 0036 64B3     		cbz	r4, .L34
 393              	.LBB3:
 581:Core/Src/dispcolor.c **** 		for (uint8_t row = 0; row < CharHeight; row++) {
 582:Core/Src/dispcolor.c **** 			for (uint8_t col = 0; col < CharWidth; col++) {
ARM GAS  C:\Users\kroko\AppData\Local\Temp\ccNEdXH2.s 			page 18


 583:Core/Src/dispcolor.c **** 				if (pCharTable[row] & (1 << (7 - col)))
 584:Core/Src/dispcolor.c **** 					dispcolor_DrawPixel(X + col, Y + row, TextColor);
 585:Core/Src/dispcolor.c **** 				else if (!TransparentBg)
 586:Core/Src/dispcolor.c **** 					dispcolor_DrawPixel(X + col, Y + row, BgColor);
 587:Core/Src/dispcolor.c **** 			}
 588:Core/Src/dispcolor.c **** 		}
 589:Core/Src/dispcolor.c **** 	} else {
 590:Core/Src/dispcolor.c **** 		for (uint8_t row = 0; row < CharHeight; row++) {
 394              		.loc 1 590 16 view .LVU92
 395 0038 4FF0000B 		mov	fp, #0
 396 003c 71E0     		b	.L22
 397              	.LVL43:
 398              	.L39:
 399              		.loc 1 590 16 view .LVU93
 400              	.LBE3:
 401              	.LBB6:
 402              	.LBB7:
 584:Core/Src/dispcolor.c **** 				else if (!TransparentBg)
 403              		.loc 1 584 6 is_stmt 1 view .LVU94
 584:Core/Src/dispcolor.c **** 				else if (!TransparentBg)
 404              		.loc 1 584 28 is_stmt 0 view .LVU95
 405 003e 04EB0800 		add	r0, r4, r8
 584:Core/Src/dispcolor.c **** 				else if (!TransparentBg)
 406              		.loc 1 584 37 view .LVU96
 407 0042 0BEB0901 		add	r1, fp, r9
 584:Core/Src/dispcolor.c **** 				else if (!TransparentBg)
 408              		.loc 1 584 6 view .LVU97
 409 0046 5246     		mov	r2, r10
 410 0048 09B2     		sxth	r1, r1
 411 004a 00B2     		sxth	r0, r0
 412 004c FFF7FEFF 		bl	dispcolor_DrawPixel
 413              	.LVL44:
 414              	.L24:
 582:Core/Src/dispcolor.c **** 				if (pCharTable[row] & (1 << (7 - col)))
 415              		.loc 1 582 46 is_stmt 1 discriminator 2 view .LVU98
 416 0050 0134     		adds	r4, r4, #1
 417              	.LVL45:
 582:Core/Src/dispcolor.c **** 				if (pCharTable[row] & (1 << (7 - col)))
 418              		.loc 1 582 46 is_stmt 0 discriminator 2 view .LVU99
 419 0052 E4B2     		uxtb	r4, r4
 420              	.LVL46:
 421              	.L26:
 582:Core/Src/dispcolor.c **** 				if (pCharTable[row] & (1 << (7 - col)))
 422              		.loc 1 582 30 is_stmt 1 discriminator 1 view .LVU100
 423 0054 AC42     		cmp	r4, r5
 424 0056 13D2     		bcs	.L38
 583:Core/Src/dispcolor.c **** 					dispcolor_DrawPixel(X + col, Y + row, TextColor);
 425              		.loc 1 583 5 view .LVU101
 583:Core/Src/dispcolor.c **** 					dispcolor_DrawPixel(X + col, Y + row, TextColor);
 426              		.loc 1 583 19 is_stmt 0 view .LVU102
 427 0058 16F80B30 		ldrb	r3, [r6, fp]	@ zero_extendqisi2
 583:Core/Src/dispcolor.c **** 					dispcolor_DrawPixel(X + col, Y + row, TextColor);
 428              		.loc 1 583 36 view .LVU103
 429 005c C4F10702 		rsb	r2, r4, #7
 583:Core/Src/dispcolor.c **** 					dispcolor_DrawPixel(X + col, Y + row, TextColor);
 430              		.loc 1 583 9 view .LVU104
 431 0060 1341     		asrs	r3, r3, r2
ARM GAS  C:\Users\kroko\AppData\Local\Temp\ccNEdXH2.s 			page 19


 583:Core/Src/dispcolor.c **** 					dispcolor_DrawPixel(X + col, Y + row, TextColor);
 432              		.loc 1 583 8 view .LVU105
 433 0062 13F0010F 		tst	r3, #1
 434 0066 EAD1     		bne	.L39
 585:Core/Src/dispcolor.c **** 					dispcolor_DrawPixel(X + col, Y + row, BgColor);
 435              		.loc 1 585 10 is_stmt 1 view .LVU106
 585:Core/Src/dispcolor.c **** 					dispcolor_DrawPixel(X + col, Y + row, BgColor);
 436              		.loc 1 585 13 is_stmt 0 view .LVU107
 437 0068 002F     		cmp	r7, #0
 438 006a F1D1     		bne	.L24
 586:Core/Src/dispcolor.c **** 			}
 439              		.loc 1 586 6 is_stmt 1 view .LVU108
 586:Core/Src/dispcolor.c **** 			}
 440              		.loc 1 586 28 is_stmt 0 view .LVU109
 441 006c 04EB0800 		add	r0, r4, r8
 586:Core/Src/dispcolor.c **** 			}
 442              		.loc 1 586 37 view .LVU110
 443 0070 0BEB0901 		add	r1, fp, r9
 586:Core/Src/dispcolor.c **** 			}
 444              		.loc 1 586 6 view .LVU111
 445 0074 019A     		ldr	r2, [sp, #4]
 446 0076 09B2     		sxth	r1, r1
 447 0078 00B2     		sxth	r0, r0
 448 007a FFF7FEFF 		bl	dispcolor_DrawPixel
 449              	.LVL47:
 450 007e E7E7     		b	.L24
 451              	.L38:
 586:Core/Src/dispcolor.c **** 			}
 452              		.loc 1 586 6 view .LVU112
 453              	.LBE7:
 581:Core/Src/dispcolor.c **** 			for (uint8_t col = 0; col < CharWidth; col++) {
 454              		.loc 1 581 46 is_stmt 1 discriminator 2 view .LVU113
 455 0080 0BF1010B 		add	fp, fp, #1
 456              	.LVL48:
 581:Core/Src/dispcolor.c **** 			for (uint8_t col = 0; col < CharWidth; col++) {
 457              		.loc 1 581 46 is_stmt 0 discriminator 2 view .LVU114
 458 0084 5FFA8BFB 		uxtb	fp, fp
 459              	.LVL49:
 460              	.L21:
 581:Core/Src/dispcolor.c **** 			for (uint8_t col = 0; col < CharWidth; col++) {
 461              		.loc 1 581 29 is_stmt 1 discriminator 1 view .LVU115
 462 0088 029B     		ldr	r3, [sp, #8]
 463 008a 9B45     		cmp	fp, r3
 464 008c 4ED2     		bcs	.L27
 465              	.LBB8:
 582:Core/Src/dispcolor.c **** 				if (pCharTable[row] & (1 << (7 - col)))
 466              		.loc 1 582 17 is_stmt 0 view .LVU116
 467 008e 039C     		ldr	r4, [sp, #12]
 468 0090 E0E7     		b	.L26
 469              	.LVL50:
 470              	.L34:
 582:Core/Src/dispcolor.c **** 				if (pCharTable[row] & (1 << (7 - col)))
 471              		.loc 1 582 17 view .LVU117
 472              	.LBE8:
 581:Core/Src/dispcolor.c **** 			for (uint8_t col = 0; col < CharWidth; col++) {
 473              		.loc 1 581 16 view .LVU118
 474 0092 DDF80CB0 		ldr	fp, [sp, #12]
ARM GAS  C:\Users\kroko\AppData\Local\Temp\ccNEdXH2.s 			page 20


 475 0096 F7E7     		b	.L21
 476              	.LVL51:
 477              	.L42:
 581:Core/Src/dispcolor.c **** 			for (uint8_t col = 0; col < CharWidth; col++) {
 478              		.loc 1 581 16 view .LVU119
 479              	.LBE6:
 480              	.LBB9:
 481              	.LBB4:
 591:Core/Src/dispcolor.c **** 			for (uint8_t col = 0; col < CharWidth; col++) {
 592:Core/Src/dispcolor.c **** 				if (col < 8) {
 593:Core/Src/dispcolor.c **** 					if (pCharTable[row * 2] & (1 << (7 - col)))
 482              		.loc 1 593 6 is_stmt 1 view .LVU120
 483              		.loc 1 593 20 is_stmt 0 view .LVU121
 484 0098 16F81B30 		ldrb	r3, [r6, fp, lsl #1]	@ zero_extendqisi2
 485              		.loc 1 593 41 view .LVU122
 486 009c C4F10702 		rsb	r2, r4, #7
 487              		.loc 1 593 10 view .LVU123
 488 00a0 1341     		asrs	r3, r3, r2
 489              		.loc 1 593 9 view .LVU124
 490 00a2 13F0010F 		tst	r3, #1
 491 00a6 0AD1     		bne	.L40
 594:Core/Src/dispcolor.c **** 						dispcolor_DrawPixel(X + col, Y + row, TextColor);
 595:Core/Src/dispcolor.c **** 					else if (!TransparentBg)
 492              		.loc 1 595 11 is_stmt 1 view .LVU125
 493              		.loc 1 595 14 is_stmt 0 view .LVU126
 494 00a8 E7B9     		cbnz	r7, .L30
 596:Core/Src/dispcolor.c **** 						dispcolor_DrawPixel(X + col, Y + row, BgColor);
 495              		.loc 1 596 7 is_stmt 1 view .LVU127
 496              		.loc 1 596 29 is_stmt 0 view .LVU128
 497 00aa 04EB0800 		add	r0, r4, r8
 498              		.loc 1 596 38 view .LVU129
 499 00ae 0BEB0901 		add	r1, fp, r9
 500              		.loc 1 596 7 view .LVU130
 501 00b2 019A     		ldr	r2, [sp, #4]
 502 00b4 09B2     		sxth	r1, r1
 503 00b6 00B2     		sxth	r0, r0
 504 00b8 FFF7FEFF 		bl	dispcolor_DrawPixel
 505              	.LVL52:
 506 00bc 12E0     		b	.L30
 507              	.L40:
 594:Core/Src/dispcolor.c **** 						dispcolor_DrawPixel(X + col, Y + row, TextColor);
 508              		.loc 1 594 7 is_stmt 1 view .LVU131
 594:Core/Src/dispcolor.c **** 						dispcolor_DrawPixel(X + col, Y + row, TextColor);
 509              		.loc 1 594 29 is_stmt 0 view .LVU132
 510 00be 04EB0800 		add	r0, r4, r8
 594:Core/Src/dispcolor.c **** 						dispcolor_DrawPixel(X + col, Y + row, TextColor);
 511              		.loc 1 594 38 view .LVU133
 512 00c2 0BEB0901 		add	r1, fp, r9
 594:Core/Src/dispcolor.c **** 						dispcolor_DrawPixel(X + col, Y + row, TextColor);
 513              		.loc 1 594 7 view .LVU134
 514 00c6 5246     		mov	r2, r10
 515 00c8 09B2     		sxth	r1, r1
 516 00ca 00B2     		sxth	r0, r0
 517 00cc FFF7FEFF 		bl	dispcolor_DrawPixel
 518              	.LVL53:
 519 00d0 08E0     		b	.L30
 520              	.L43:
ARM GAS  C:\Users\kroko\AppData\Local\Temp\ccNEdXH2.s 			page 21


 597:Core/Src/dispcolor.c **** 				} else {
 598:Core/Src/dispcolor.c **** 					if (pCharTable[(row * 2) + 1] & (1 << (15 - col)))
 599:Core/Src/dispcolor.c **** 						dispcolor_DrawPixel(X + col, Y + row, TextColor);
 521              		.loc 1 599 7 is_stmt 1 view .LVU135
 522              		.loc 1 599 29 is_stmt 0 view .LVU136
 523 00d2 04EB0800 		add	r0, r4, r8
 524              		.loc 1 599 38 view .LVU137
 525 00d6 0BEB0901 		add	r1, fp, r9
 526              		.loc 1 599 7 view .LVU138
 527 00da 5246     		mov	r2, r10
 528 00dc 09B2     		sxth	r1, r1
 529 00de 00B2     		sxth	r0, r0
 530 00e0 FFF7FEFF 		bl	dispcolor_DrawPixel
 531              	.LVL54:
 532              	.L30:
 591:Core/Src/dispcolor.c **** 				if (col < 8) {
 533              		.loc 1 591 46 is_stmt 1 discriminator 2 view .LVU139
 534 00e4 0134     		adds	r4, r4, #1
 535              	.LVL55:
 591:Core/Src/dispcolor.c **** 				if (col < 8) {
 536              		.loc 1 591 46 is_stmt 0 discriminator 2 view .LVU140
 537 00e6 E4B2     		uxtb	r4, r4
 538              	.LVL56:
 539              	.L33:
 591:Core/Src/dispcolor.c **** 				if (col < 8) {
 540              		.loc 1 591 30 is_stmt 1 discriminator 1 view .LVU141
 541 00e8 AC42     		cmp	r4, r5
 542 00ea 16D2     		bcs	.L41
 592:Core/Src/dispcolor.c **** 					if (pCharTable[row * 2] & (1 << (7 - col)))
 543              		.loc 1 592 5 view .LVU142
 592:Core/Src/dispcolor.c **** 					if (pCharTable[row * 2] & (1 << (7 - col)))
 544              		.loc 1 592 8 is_stmt 0 view .LVU143
 545 00ec 072C     		cmp	r4, #7
 546 00ee D3D9     		bls	.L42
 598:Core/Src/dispcolor.c **** 						dispcolor_DrawPixel(X + col, Y + row, TextColor);
 547              		.loc 1 598 6 is_stmt 1 view .LVU144
 598:Core/Src/dispcolor.c **** 						dispcolor_DrawPixel(X + col, Y + row, TextColor);
 548              		.loc 1 598 20 is_stmt 0 view .LVU145
 549 00f0 06EB4B03 		add	r3, r6, fp, lsl #1
 550 00f4 5B78     		ldrb	r3, [r3, #1]	@ zero_extendqisi2
 598:Core/Src/dispcolor.c **** 						dispcolor_DrawPixel(X + col, Y + row, TextColor);
 551              		.loc 1 598 48 view .LVU146
 552 00f6 C4F10F02 		rsb	r2, r4, #15
 598:Core/Src/dispcolor.c **** 						dispcolor_DrawPixel(X + col, Y + row, TextColor);
 553              		.loc 1 598 10 view .LVU147
 554 00fa 1341     		asrs	r3, r3, r2
 598:Core/Src/dispcolor.c **** 						dispcolor_DrawPixel(X + col, Y + row, TextColor);
 555              		.loc 1 598 9 view .LVU148
 556 00fc 13F0010F 		tst	r3, #1
 557 0100 E7D1     		bne	.L43
 600:Core/Src/dispcolor.c **** 					else if (!TransparentBg)
 558              		.loc 1 600 11 is_stmt 1 view .LVU149
 559              		.loc 1 600 14 is_stmt 0 view .LVU150
 560 0102 002F     		cmp	r7, #0
 561 0104 EED1     		bne	.L30
 601:Core/Src/dispcolor.c **** 						dispcolor_DrawPixel(X + col, Y + row, BgColor);
 562              		.loc 1 601 7 is_stmt 1 view .LVU151
ARM GAS  C:\Users\kroko\AppData\Local\Temp\ccNEdXH2.s 			page 22


 563              		.loc 1 601 29 is_stmt 0 view .LVU152
 564 0106 04EB0800 		add	r0, r4, r8
 565              		.loc 1 601 38 view .LVU153
 566 010a 0BEB0901 		add	r1, fp, r9
 567              		.loc 1 601 7 view .LVU154
 568 010e 019A     		ldr	r2, [sp, #4]
 569 0110 09B2     		sxth	r1, r1
 570 0112 00B2     		sxth	r0, r0
 571 0114 FFF7FEFF 		bl	dispcolor_DrawPixel
 572              	.LVL57:
 573 0118 E4E7     		b	.L30
 574              	.L41:
 575              		.loc 1 601 7 view .LVU155
 576              	.LBE4:
 590:Core/Src/dispcolor.c **** 			for (uint8_t col = 0; col < CharWidth; col++) {
 577              		.loc 1 590 46 is_stmt 1 discriminator 2 view .LVU156
 578 011a 0BF1010B 		add	fp, fp, #1
 579              	.LVL58:
 590:Core/Src/dispcolor.c **** 			for (uint8_t col = 0; col < CharWidth; col++) {
 580              		.loc 1 590 46 is_stmt 0 discriminator 2 view .LVU157
 581 011e 5FFA8BFB 		uxtb	fp, fp
 582              	.LVL59:
 583              	.L22:
 590:Core/Src/dispcolor.c **** 			for (uint8_t col = 0; col < CharWidth; col++) {
 584              		.loc 1 590 29 is_stmt 1 discriminator 1 view .LVU158
 585 0122 029B     		ldr	r3, [sp, #8]
 586 0124 9B45     		cmp	fp, r3
 587 0126 01D2     		bcs	.L27
 588              	.LBB5:
 591:Core/Src/dispcolor.c **** 				if (col < 8) {
 589              		.loc 1 591 17 is_stmt 0 view .LVU159
 590 0128 0024     		movs	r4, #0
 591 012a DDE7     		b	.L33
 592              	.LVL60:
 593              	.L27:
 591:Core/Src/dispcolor.c **** 				if (col < 8) {
 594              		.loc 1 591 17 view .LVU160
 595              	.LBE5:
 596              	.LBE9:
 602:Core/Src/dispcolor.c **** 				}
 603:Core/Src/dispcolor.c **** 			}
 604:Core/Src/dispcolor.c **** 		}
 605:Core/Src/dispcolor.c **** 	}
 606:Core/Src/dispcolor.c **** 
 607:Core/Src/dispcolor.c **** 	return CharWidth;
 597              		.loc 1 607 2 is_stmt 1 view .LVU161
 608:Core/Src/dispcolor.c **** }
 598              		.loc 1 608 1 is_stmt 0 view .LVU162
 599 012c 2846     		mov	r0, r5
 600 012e 05B0     		add	sp, sp, #20
 601              		.cfi_def_cfa_offset 36
 602              		@ sp needed
 603 0130 BDE8F08F 		pop	{r4, r5, r6, r7, r8, r9, r10, fp, pc}
 604              		.loc 1 608 1 view .LVU163
 605              		.cfi_endproc
 606              	.LFE33:
 608              		.section	.text.dispcolor_GetPixel,"ax",%progbits
ARM GAS  C:\Users\kroko\AppData\Local\Temp\ccNEdXH2.s 			page 23


 609              		.align	1
 610              		.global	dispcolor_GetPixel
 611              		.syntax unified
 612              		.thumb
 613              		.thumb_func
 615              	dispcolor_GetPixel:
 616              	.LVL61:
 617              	.LFB8:
  64:Core/Src/dispcolor.c **** #if (DISPCOLOR_type == DISPTYPE_gc9a01a)
 618              		.loc 1 64 51 is_stmt 1 view -0
 619              		.cfi_startproc
 620              		@ args = 0, pretend = 0, frame = 0
 621              		@ frame_needed = 0, uses_anonymous_args = 0
  64:Core/Src/dispcolor.c **** #if (DISPCOLOR_type == DISPTYPE_gc9a01a)
 622              		.loc 1 64 51 is_stmt 0 view .LVU165
 623 0000 08B5     		push	{r3, lr}
 624              		.cfi_def_cfa_offset 8
 625              		.cfi_offset 3, -8
 626              		.cfi_offset 14, -4
  66:Core/Src/dispcolor.c **** #endif
 627              		.loc 1 66 2 is_stmt 1 view .LVU166
  66:Core/Src/dispcolor.c **** #endif
 628              		.loc 1 66 9 is_stmt 0 view .LVU167
 629 0002 FFF7FEFF 		bl	GC9A01A_GetPixel
 630              	.LVL62:
  68:Core/Src/dispcolor.c **** 
 631              		.loc 1 68 1 view .LVU168
 632 0006 08BD     		pop	{r3, pc}
 633              		.cfi_endproc
 634              	.LFE8:
 636              		.section	.text.dispcolor_FillRect,"ax",%progbits
 637              		.align	1
 638              		.global	dispcolor_FillRect
 639              		.syntax unified
 640              		.thumb
 641              		.thumb_func
 643              	dispcolor_FillRect:
 644              	.LVL63:
 645              	.LFB9:
  71:Core/Src/dispcolor.c **** #if (DISPCOLOR_type == DISPTYPE_gc9a01a)
 646              		.loc 1 71 19 is_stmt 1 view -0
 647              		.cfi_startproc
 648              		@ args = 4, pretend = 0, frame = 0
 649              		@ frame_needed = 0, uses_anonymous_args = 0
  71:Core/Src/dispcolor.c **** #if (DISPCOLOR_type == DISPTYPE_gc9a01a)
 650              		.loc 1 71 19 is_stmt 0 view .LVU170
 651 0000 10B5     		push	{r4, lr}
 652              		.cfi_def_cfa_offset 8
 653              		.cfi_offset 4, -8
 654              		.cfi_offset 14, -4
 655 0002 82B0     		sub	sp, sp, #8
 656              		.cfi_def_cfa_offset 16
  73:Core/Src/dispcolor.c **** #endif
 657              		.loc 1 73 2 is_stmt 1 view .LVU171
 658 0004 BDF81040 		ldrh	r4, [sp, #16]
 659 0008 0094     		str	r4, [sp]
 660 000a FFF7FEFF 		bl	GC9A01A_FillRect
ARM GAS  C:\Users\kroko\AppData\Local\Temp\ccNEdXH2.s 			page 24


 661              	.LVL64:
  75:Core/Src/dispcolor.c **** 
 662              		.loc 1 75 1 is_stmt 0 view .LVU172
 663 000e 02B0     		add	sp, sp, #8
 664              		.cfi_def_cfa_offset 8
 665              		@ sp needed
 666 0010 10BD     		pop	{r4, pc}
  75:Core/Src/dispcolor.c **** 
 667              		.loc 1 75 1 view .LVU173
 668              		.cfi_endproc
 669              	.LFE9:
 671              		.section	.text.dispcolor_FillScreen,"ax",%progbits
 672              		.align	1
 673              		.global	dispcolor_FillScreen
 674              		.syntax unified
 675              		.thumb
 676              		.thumb_func
 678              	dispcolor_FillScreen:
 679              	.LVL65:
 680              	.LFB10:
  77:Core/Src/dispcolor.c **** 	dispcolor_FillRect(0, 0, _Width, _Height, color);
 681              		.loc 1 77 43 is_stmt 1 view -0
 682              		.cfi_startproc
 683              		@ args = 0, pretend = 0, frame = 0
 684              		@ frame_needed = 0, uses_anonymous_args = 0
  77:Core/Src/dispcolor.c **** 	dispcolor_FillRect(0, 0, _Width, _Height, color);
 685              		.loc 1 77 43 is_stmt 0 view .LVU175
 686 0000 00B5     		push	{lr}
 687              		.cfi_def_cfa_offset 4
 688              		.cfi_offset 14, -4
 689 0002 83B0     		sub	sp, sp, #12
 690              		.cfi_def_cfa_offset 16
  78:Core/Src/dispcolor.c **** }
 691              		.loc 1 78 2 is_stmt 1 view .LVU176
 692 0004 0090     		str	r0, [sp]
 693 0006 064B     		ldr	r3, .L50
 694 0008 B3F90030 		ldrsh	r3, [r3]
 695 000c 054A     		ldr	r2, .L50+4
 696 000e B2F90020 		ldrsh	r2, [r2]
 697 0012 0021     		movs	r1, #0
 698 0014 0846     		mov	r0, r1
 699              	.LVL66:
  78:Core/Src/dispcolor.c **** }
 700              		.loc 1 78 2 is_stmt 0 view .LVU177
 701 0016 FFF7FEFF 		bl	dispcolor_FillRect
 702              	.LVL67:
  79:Core/Src/dispcolor.c **** 
 703              		.loc 1 79 1 view .LVU178
 704 001a 03B0     		add	sp, sp, #12
 705              		.cfi_def_cfa_offset 4
 706              		@ sp needed
 707 001c 5DF804FB 		ldr	pc, [sp], #4
 708              	.L51:
 709              		.align	2
 710              	.L50:
 711 0020 00000000 		.word	_Height
 712 0024 00000000 		.word	_Width
ARM GAS  C:\Users\kroko\AppData\Local\Temp\ccNEdXH2.s 			page 25


 713              		.cfi_endproc
 714              	.LFE10:
 716              		.section	.text.dispcolor_ClearScreen,"ax",%progbits
 717              		.align	1
 718              		.global	dispcolor_ClearScreen
 719              		.syntax unified
 720              		.thumb
 721              		.thumb_func
 723              	dispcolor_ClearScreen:
 724              	.LFB11:
  81:Core/Src/dispcolor.c **** 	dispcolor_FillScreen(BLACK);
 725              		.loc 1 81 34 is_stmt 1 view -0
 726              		.cfi_startproc
 727              		@ args = 0, pretend = 0, frame = 0
 728              		@ frame_needed = 0, uses_anonymous_args = 0
 729 0000 08B5     		push	{r3, lr}
 730              		.cfi_def_cfa_offset 8
 731              		.cfi_offset 3, -8
 732              		.cfi_offset 14, -4
  82:Core/Src/dispcolor.c **** }
 733              		.loc 1 82 2 view .LVU180
 734 0002 0020     		movs	r0, #0
 735 0004 FFF7FEFF 		bl	dispcolor_FillScreen
 736              	.LVL68:
  83:Core/Src/dispcolor.c **** 
 737              		.loc 1 83 1 is_stmt 0 view .LVU181
 738 0008 08BD     		pop	{r3, pc}
 739              		.cfi_endproc
 740              	.LFE11:
 742              		.section	.text.dispcolor_Init,"ax",%progbits
 743              		.align	1
 744              		.global	dispcolor_Init
 745              		.syntax unified
 746              		.thumb
 747              		.thumb_func
 749              	dispcolor_Init:
 750              	.LVL69:
 751              	.LFB4:
  33:Core/Src/dispcolor.c **** #if (DISPCOLOR_type == DISPTYPE_gc9a01a)
 752              		.loc 1 33 52 is_stmt 1 view -0
 753              		.cfi_startproc
 754              		@ args = 0, pretend = 0, frame = 0
 755              		@ frame_needed = 0, uses_anonymous_args = 0
  33:Core/Src/dispcolor.c **** #if (DISPCOLOR_type == DISPTYPE_gc9a01a)
 756              		.loc 1 33 52 is_stmt 0 view .LVU183
 757 0000 08B5     		push	{r3, lr}
 758              		.cfi_def_cfa_offset 8
 759              		.cfi_offset 3, -8
 760              		.cfi_offset 14, -4
  35:Core/Src/dispcolor.c **** 	_Width = GC9A01A_GetWidth();
 761              		.loc 1 35 2 is_stmt 1 view .LVU184
 762 0002 FFF7FEFF 		bl	GC9A01A_Init
 763              	.LVL70:
  36:Core/Src/dispcolor.c **** 	_Height = GC9A01A_GetHeight();
 764              		.loc 1 36 2 view .LVU185
  36:Core/Src/dispcolor.c **** 	_Height = GC9A01A_GetHeight();
 765              		.loc 1 36 11 is_stmt 0 view .LVU186
ARM GAS  C:\Users\kroko\AppData\Local\Temp\ccNEdXH2.s 			page 26


 766 0006 FFF7FEFF 		bl	GC9A01A_GetWidth
 767              	.LVL71:
  36:Core/Src/dispcolor.c **** 	_Height = GC9A01A_GetHeight();
 768              		.loc 1 36 9 discriminator 1 view .LVU187
 769 000a 044B     		ldr	r3, .L56
 770 000c 1880     		strh	r0, [r3]	@ movhi
  37:Core/Src/dispcolor.c **** #endif
 771              		.loc 1 37 2 is_stmt 1 view .LVU188
  37:Core/Src/dispcolor.c **** #endif
 772              		.loc 1 37 12 is_stmt 0 view .LVU189
 773 000e FFF7FEFF 		bl	GC9A01A_GetHeight
 774              	.LVL72:
  37:Core/Src/dispcolor.c **** #endif
 775              		.loc 1 37 10 discriminator 1 view .LVU190
 776 0012 034B     		ldr	r3, .L56+4
 777 0014 1880     		strh	r0, [r3]	@ movhi
  40:Core/Src/dispcolor.c **** }
 778              		.loc 1 40 2 is_stmt 1 view .LVU191
 779 0016 FFF7FEFF 		bl	dispcolor_ClearScreen
 780              	.LVL73:
  41:Core/Src/dispcolor.c **** 
 781              		.loc 1 41 1 is_stmt 0 view .LVU192
 782 001a 08BD     		pop	{r3, pc}
 783              	.L57:
 784              		.align	2
 785              	.L56:
 786 001c 00000000 		.word	_Width
 787 0020 00000000 		.word	_Height
 788              		.cfi_endproc
 789              	.LFE4:
 791              		.section	.text.dispcolor_DrawLine,"ax",%progbits
 792              		.align	1
 793              		.global	dispcolor_DrawLine
 794              		.syntax unified
 795              		.thumb
 796              		.thumb_func
 798              	dispcolor_DrawLine:
 799              	.LVL74:
 800              	.LFB13:
 112:Core/Src/dispcolor.c **** 	if (x1 == x2) {
 801              		.loc 1 112 19 is_stmt 1 view -0
 802              		.cfi_startproc
 803              		@ args = 4, pretend = 0, frame = 0
 804              		@ frame_needed = 0, uses_anonymous_args = 0
 112:Core/Src/dispcolor.c **** 	if (x1 == x2) {
 805              		.loc 1 112 19 is_stmt 0 view .LVU194
 806 0000 10B5     		push	{r4, lr}
 807              		.cfi_def_cfa_offset 8
 808              		.cfi_offset 4, -8
 809              		.cfi_offset 14, -4
 810 0002 82B0     		sub	sp, sp, #8
 811              		.cfi_def_cfa_offset 16
 812 0004 9E46     		mov	lr, r3
 813 0006 BDF81040 		ldrh	r4, [sp, #16]
 113:Core/Src/dispcolor.c **** 		if (y1 > y2)
 814              		.loc 1 113 2 is_stmt 1 view .LVU195
 113:Core/Src/dispcolor.c **** 		if (y1 > y2)
ARM GAS  C:\Users\kroko\AppData\Local\Temp\ccNEdXH2.s 			page 27


 815              		.loc 1 113 5 is_stmt 0 view .LVU196
 816 000a 9042     		cmp	r0, r2
 817 000c 07D0     		beq	.L67
 818 000e 9446     		mov	ip, r2
 121:Core/Src/dispcolor.c **** 		if (x1 > x2)
 819              		.loc 1 121 2 is_stmt 1 view .LVU197
 121:Core/Src/dispcolor.c **** 		if (x1 > x2)
 820              		.loc 1 121 5 is_stmt 0 view .LVU198
 821 0010 9942     		cmp	r1, r3
 822 0012 19D0     		beq	.L68
 129:Core/Src/dispcolor.c **** }
 823              		.loc 1 129 2 is_stmt 1 view .LVU199
 824 0014 0094     		str	r4, [sp]
 825 0016 FFF7FEFF 		bl	DrawLine_Slow
 826              	.LVL75:
 827              	.L58:
 130:Core/Src/dispcolor.c **** 
 828              		.loc 1 130 1 is_stmt 0 view .LVU200
 829 001a 02B0     		add	sp, sp, #8
 830              		.cfi_remember_state
 831              		.cfi_def_cfa_offset 8
 832              		@ sp needed
 833 001c 10BD     		pop	{r4, pc}
 834              	.LVL76:
 835              	.L67:
 836              		.cfi_restore_state
 114:Core/Src/dispcolor.c **** 			dispcolor_FillRect(x1, y2, 1, y1 - y2 + 1, color);
 837              		.loc 1 114 3 is_stmt 1 view .LVU201
 114:Core/Src/dispcolor.c **** 			dispcolor_FillRect(x1, y2, 1, y1 - y2 + 1, color);
 838              		.loc 1 114 6 is_stmt 0 view .LVU202
 839 001e 9942     		cmp	r1, r3
 840 0020 09DD     		ble	.L60
 115:Core/Src/dispcolor.c **** 		else
 841              		.loc 1 115 4 is_stmt 1 view .LVU203
 115:Core/Src/dispcolor.c **** 		else
 842              		.loc 1 115 37 is_stmt 0 view .LVU204
 843 0022 CB1A     		subs	r3, r1, r3
 844              	.LVL77:
 115:Core/Src/dispcolor.c **** 		else
 845              		.loc 1 115 37 view .LVU205
 846 0024 9BB2     		uxth	r3, r3
 115:Core/Src/dispcolor.c **** 		else
 847              		.loc 1 115 42 view .LVU206
 848 0026 0133     		adds	r3, r3, #1
 115:Core/Src/dispcolor.c **** 		else
 849              		.loc 1 115 4 view .LVU207
 850 0028 0094     		str	r4, [sp]
 851 002a 1BB2     		sxth	r3, r3
 852 002c 0122     		movs	r2, #1
 853              	.LVL78:
 115:Core/Src/dispcolor.c **** 		else
 854              		.loc 1 115 4 view .LVU208
 855 002e 7146     		mov	r1, lr
 856              	.LVL79:
 115:Core/Src/dispcolor.c **** 		else
 857              		.loc 1 115 4 view .LVU209
 858 0030 FFF7FEFF 		bl	dispcolor_FillRect
ARM GAS  C:\Users\kroko\AppData\Local\Temp\ccNEdXH2.s 			page 28


 859              	.LVL80:
 115:Core/Src/dispcolor.c **** 		else
 860              		.loc 1 115 4 view .LVU210
 861 0034 F1E7     		b	.L58
 862              	.LVL81:
 863              	.L60:
 117:Core/Src/dispcolor.c **** 		return;
 864              		.loc 1 117 4 is_stmt 1 view .LVU211
 117:Core/Src/dispcolor.c **** 		return;
 865              		.loc 1 117 37 is_stmt 0 view .LVU212
 866 0036 5B1A     		subs	r3, r3, r1
 867              	.LVL82:
 117:Core/Src/dispcolor.c **** 		return;
 868              		.loc 1 117 37 view .LVU213
 869 0038 9BB2     		uxth	r3, r3
 117:Core/Src/dispcolor.c **** 		return;
 870              		.loc 1 117 42 view .LVU214
 871 003a 0133     		adds	r3, r3, #1
 117:Core/Src/dispcolor.c **** 		return;
 872              		.loc 1 117 4 view .LVU215
 873 003c 0094     		str	r4, [sp]
 874 003e 1BB2     		sxth	r3, r3
 875 0040 0122     		movs	r2, #1
 876              	.LVL83:
 117:Core/Src/dispcolor.c **** 		return;
 877              		.loc 1 117 4 view .LVU216
 878 0042 FFF7FEFF 		bl	dispcolor_FillRect
 879              	.LVL84:
 118:Core/Src/dispcolor.c **** 	}
 880              		.loc 1 118 3 is_stmt 1 view .LVU217
 881 0046 E8E7     		b	.L58
 882              	.LVL85:
 883              	.L68:
 122:Core/Src/dispcolor.c **** 			dispcolor_FillRect(x2, y1, x1 - x2 + 1, 1, color);
 884              		.loc 1 122 3 view .LVU218
 122:Core/Src/dispcolor.c **** 			dispcolor_FillRect(x2, y1, x1 - x2 + 1, 1, color);
 885              		.loc 1 122 6 is_stmt 0 view .LVU219
 886 0048 9042     		cmp	r0, r2
 887 004a 09DD     		ble	.L64
 123:Core/Src/dispcolor.c **** 		else
 888              		.loc 1 123 4 is_stmt 1 view .LVU220
 123:Core/Src/dispcolor.c **** 		else
 889              		.loc 1 123 34 is_stmt 0 view .LVU221
 890 004c 821A     		subs	r2, r0, r2
 891              	.LVL86:
 123:Core/Src/dispcolor.c **** 		else
 892              		.loc 1 123 34 view .LVU222
 893 004e 92B2     		uxth	r2, r2
 123:Core/Src/dispcolor.c **** 		else
 894              		.loc 1 123 39 view .LVU223
 895 0050 0132     		adds	r2, r2, #1
 123:Core/Src/dispcolor.c **** 		else
 896              		.loc 1 123 4 view .LVU224
 897 0052 0094     		str	r4, [sp]
 898 0054 0123     		movs	r3, #1
 899              	.LVL87:
 123:Core/Src/dispcolor.c **** 		else
ARM GAS  C:\Users\kroko\AppData\Local\Temp\ccNEdXH2.s 			page 29


 900              		.loc 1 123 4 view .LVU225
 901 0056 12B2     		sxth	r2, r2
 902 0058 6046     		mov	r0, ip
 903              	.LVL88:
 123:Core/Src/dispcolor.c **** 		else
 904              		.loc 1 123 4 view .LVU226
 905 005a FFF7FEFF 		bl	dispcolor_FillRect
 906              	.LVL89:
 123:Core/Src/dispcolor.c **** 		else
 907              		.loc 1 123 4 view .LVU227
 908 005e DCE7     		b	.L58
 909              	.LVL90:
 910              	.L64:
 125:Core/Src/dispcolor.c **** 		return;
 911              		.loc 1 125 4 is_stmt 1 view .LVU228
 125:Core/Src/dispcolor.c **** 		return;
 912              		.loc 1 125 34 is_stmt 0 view .LVU229
 913 0060 121A     		subs	r2, r2, r0
 914              	.LVL91:
 125:Core/Src/dispcolor.c **** 		return;
 915              		.loc 1 125 34 view .LVU230
 916 0062 92B2     		uxth	r2, r2
 125:Core/Src/dispcolor.c **** 		return;
 917              		.loc 1 125 39 view .LVU231
 918 0064 0132     		adds	r2, r2, #1
 125:Core/Src/dispcolor.c **** 		return;
 919              		.loc 1 125 4 view .LVU232
 920 0066 0094     		str	r4, [sp]
 921 0068 0123     		movs	r3, #1
 922              	.LVL92:
 125:Core/Src/dispcolor.c **** 		return;
 923              		.loc 1 125 4 view .LVU233
 924 006a 12B2     		sxth	r2, r2
 925 006c FFF7FEFF 		bl	dispcolor_FillRect
 926              	.LVL93:
 126:Core/Src/dispcolor.c **** 	}
 927              		.loc 1 126 3 is_stmt 1 view .LVU234
 928 0070 D3E7     		b	.L58
 929              		.cfi_endproc
 930              	.LFE13:
 932              		.section	.text.DrawPixel,"ax",%progbits
 933              		.align	1
 934              		.global	DrawPixel
 935              		.syntax unified
 936              		.thumb
 937              		.thumb_func
 939              	DrawPixel:
 940              	.LVL94:
 941              	.LFB15:
 164:Core/Src/dispcolor.c **** 	uRGB565 colorRgb;
 942              		.loc 1 164 71 view -0
 943              		.cfi_startproc
 944              		@ args = 0, pretend = 0, frame = 0
 945              		@ frame_needed = 0, uses_anonymous_args = 0
 164:Core/Src/dispcolor.c **** 	uRGB565 colorRgb;
 946              		.loc 1 164 71 is_stmt 0 view .LVU236
 947 0000 70B5     		push	{r4, r5, r6, lr}
ARM GAS  C:\Users\kroko\AppData\Local\Temp\ccNEdXH2.s 			page 30


 948              		.cfi_def_cfa_offset 16
 949              		.cfi_offset 4, -16
 950              		.cfi_offset 5, -12
 951              		.cfi_offset 6, -8
 952              		.cfi_offset 14, -4
 953 0002 2DED028B 		vpush.64	{d8}
 954              		.cfi_def_cfa_offset 24
 955              		.cfi_offset 80, -24
 956              		.cfi_offset 81, -20
 957 0006 0446     		mov	r4, r0
 958 0008 0D46     		mov	r5, r1
 959 000a 1646     		mov	r6, r2
 960 000c B0EE408A 		vmov.f32	s16, s0
 165:Core/Src/dispcolor.c **** 	uRGB565 oldColorRgb;
 961              		.loc 1 165 2 is_stmt 1 view .LVU237
 166:Core/Src/dispcolor.c **** 
 962              		.loc 1 166 2 view .LVU238
 168:Core/Src/dispcolor.c **** 	oldColorRgb.word = dispcolor_GetPixel(x, y);
 963              		.loc 1 168 2 view .LVU239
 169:Core/Src/dispcolor.c **** 
 964              		.loc 1 169 2 view .LVU240
 169:Core/Src/dispcolor.c **** 
 965              		.loc 1 169 21 is_stmt 0 view .LVU241
 966 0010 FFF7FEFF 		bl	dispcolor_GetPixel
 967              	.LVL95:
 171:Core/Src/dispcolor.c **** 	uint16_t r = oldColorRgb.rgb.r * iintensity + colorRgb.rgb.r * intensity;
 968              		.loc 1 171 2 is_stmt 1 view .LVU242
 171:Core/Src/dispcolor.c **** 	uint16_t r = oldColorRgb.rgb.r * iintensity + colorRgb.rgb.r * intensity;
 969              		.loc 1 171 8 is_stmt 0 view .LVU243
 970 0014 B7EE007A 		vmov.f32	s14, #1.0e+0
 971 0018 37EE487A 		vsub.f32	s14, s14, s16
 972              	.LVL96:
 172:Core/Src/dispcolor.c **** 	uint16_t g = oldColorRgb.rgb.g * iintensity + colorRgb.rgb.g * intensity;
 973              		.loc 1 172 2 is_stmt 1 view .LVU244
 172:Core/Src/dispcolor.c **** 	uint16_t g = oldColorRgb.rgb.g * iintensity + colorRgb.rgb.g * intensity;
 974              		.loc 1 172 30 is_stmt 0 view .LVU245
 975 001c 00F01F03 		and	r3, r0, #31
 976 0020 07EE903A 		vmov	s15, r3	@ int
 172:Core/Src/dispcolor.c **** 	uint16_t g = oldColorRgb.rgb.g * iintensity + colorRgb.rgb.g * intensity;
 977              		.loc 1 172 33 view .LVU246
 978 0024 F8EEE77A 		vcvt.f32.s32	s15, s15
 979 0028 67EE877A 		vmul.f32	s15, s15, s14
 172:Core/Src/dispcolor.c **** 	uint16_t g = oldColorRgb.rgb.g * iintensity + colorRgb.rgb.g * intensity;
 980              		.loc 1 172 60 view .LVU247
 981 002c 06F01F03 		and	r3, r6, #31
 982 0030 06EE903A 		vmov	s13, r3	@ int
 172:Core/Src/dispcolor.c **** 	uint16_t g = oldColorRgb.rgb.g * iintensity + colorRgb.rgb.g * intensity;
 983              		.loc 1 172 63 view .LVU248
 984 0034 F8EEE66A 		vcvt.f32.s32	s13, s13
 985 0038 66EE886A 		vmul.f32	s13, s13, s16
 172:Core/Src/dispcolor.c **** 	uint16_t g = oldColorRgb.rgb.g * iintensity + colorRgb.rgb.g * intensity;
 986              		.loc 1 172 46 view .LVU249
 987 003c 77EEA67A 		vadd.f32	s15, s15, s13
 172:Core/Src/dispcolor.c **** 	uint16_t g = oldColorRgb.rgb.g * iintensity + colorRgb.rgb.g * intensity;
 988              		.loc 1 172 11 view .LVU250
 989 0040 FCEEE77A 		vcvt.u32.f32	s15, s15
 990 0044 17EE903A 		vmov	r3, s15	@ int
ARM GAS  C:\Users\kroko\AppData\Local\Temp\ccNEdXH2.s 			page 31


 991 0048 99B2     		uxth	r1, r3
 992              	.LVL97:
 173:Core/Src/dispcolor.c **** 	uint16_t b = oldColorRgb.rgb.b * iintensity + colorRgb.rgb.b * intensity;
 993              		.loc 1 173 2 is_stmt 1 view .LVU251
 173:Core/Src/dispcolor.c **** 	uint16_t b = oldColorRgb.rgb.b * iintensity + colorRgb.rgb.b * intensity;
 994              		.loc 1 173 30 is_stmt 0 view .LVU252
 995 004a C0F34513 		ubfx	r3, r0, #5, #6
 996 004e 07EE903A 		vmov	s15, r3	@ int
 173:Core/Src/dispcolor.c **** 	uint16_t b = oldColorRgb.rgb.b * iintensity + colorRgb.rgb.b * intensity;
 997              		.loc 1 173 33 view .LVU253
 998 0052 F8EEE77A 		vcvt.f32.s32	s15, s15
 999 0056 67EE877A 		vmul.f32	s15, s15, s14
 173:Core/Src/dispcolor.c **** 	uint16_t b = oldColorRgb.rgb.b * iintensity + colorRgb.rgb.b * intensity;
 1000              		.loc 1 173 60 view .LVU254
 1001 005a C6F34513 		ubfx	r3, r6, #5, #6
 1002 005e 06EE903A 		vmov	s13, r3	@ int
 173:Core/Src/dispcolor.c **** 	uint16_t b = oldColorRgb.rgb.b * iintensity + colorRgb.rgb.b * intensity;
 1003              		.loc 1 173 63 view .LVU255
 1004 0062 F8EEE66A 		vcvt.f32.s32	s13, s13
 1005 0066 66EE886A 		vmul.f32	s13, s13, s16
 173:Core/Src/dispcolor.c **** 	uint16_t b = oldColorRgb.rgb.b * iintensity + colorRgb.rgb.b * intensity;
 1006              		.loc 1 173 46 view .LVU256
 1007 006a 77EEA67A 		vadd.f32	s15, s15, s13
 173:Core/Src/dispcolor.c **** 	uint16_t b = oldColorRgb.rgb.b * iintensity + colorRgb.rgb.b * intensity;
 1008              		.loc 1 173 11 view .LVU257
 1009 006e FCEEE77A 		vcvt.u32.f32	s15, s15
 1010 0072 17EE903A 		vmov	r3, s15	@ int
 1011 0076 1FFA83FC 		uxth	ip, r3
 1012              	.LVL98:
 174:Core/Src/dispcolor.c **** 
 1013              		.loc 1 174 2 is_stmt 1 view .LVU258
 174:Core/Src/dispcolor.c **** 
 1014              		.loc 1 174 30 is_stmt 0 view .LVU259
 1015 007a C0F3C423 		ubfx	r3, r0, #11, #5
 1016 007e 00EE103A 		vmov	s0, r3	@ int
 174:Core/Src/dispcolor.c **** 
 1017              		.loc 1 174 33 view .LVU260
 1018 0082 B8EEC00A 		vcvt.f32.s32	s0, s0
 1019 0086 20EE070A 		vmul.f32	s0, s0, s14
 174:Core/Src/dispcolor.c **** 
 1020              		.loc 1 174 60 view .LVU261
 1021 008a F30A     		lsrs	r3, r6, #11
 1022 008c 07EE903A 		vmov	s15, r3	@ int
 174:Core/Src/dispcolor.c **** 
 1023              		.loc 1 174 63 view .LVU262
 1024 0090 F8EEE77A 		vcvt.f32.s32	s15, s15
 1025 0094 67EE887A 		vmul.f32	s15, s15, s16
 174:Core/Src/dispcolor.c **** 
 1026              		.loc 1 174 46 view .LVU263
 1027 0098 30EE270A 		vadd.f32	s0, s0, s15
 174:Core/Src/dispcolor.c **** 
 1028              		.loc 1 174 11 view .LVU264
 1029 009c BCEEC00A 		vcvt.u32.f32	s0, s0
 1030 00a0 10EE103A 		vmov	r3, s0	@ int
 1031 00a4 9BB2     		uxth	r3, r3
 1032              	.LVL99:
 176:Core/Src/dispcolor.c **** 	newColorRgb.rgb.r = r;
ARM GAS  C:\Users\kroko\AppData\Local\Temp\ccNEdXH2.s 			page 32


 1033              		.loc 1 176 2 is_stmt 1 view .LVU265
 177:Core/Src/dispcolor.c **** 	newColorRgb.rgb.g = g;
 1034              		.loc 1 177 2 view .LVU266
 177:Core/Src/dispcolor.c **** 	newColorRgb.rgb.g = g;
 1035              		.loc 1 177 20 is_stmt 0 view .LVU267
 1036 00a6 4FF00002 		mov	r2, #0	@ movhi
 1037              	.LVL100:
 177:Core/Src/dispcolor.c **** 	newColorRgb.rgb.g = g;
 1038              		.loc 1 177 20 view .LVU268
 1039 00aa 61F30402 		bfi	r2, r1, #0, #5
 1040              	.LVL101:
 178:Core/Src/dispcolor.c **** 	newColorRgb.rgb.b = b;
 1041              		.loc 1 178 2 is_stmt 1 view .LVU269
 178:Core/Src/dispcolor.c **** 	newColorRgb.rgb.b = b;
 1042              		.loc 1 178 20 is_stmt 0 view .LVU270
 1043 00ae 6CF34A12 		bfi	r2, ip, #5, #6
 179:Core/Src/dispcolor.c **** 	dispcolor_DrawPixel(x, y, newColorRgb.word);
 1044              		.loc 1 179 2 is_stmt 1 view .LVU271
 179:Core/Src/dispcolor.c **** 	dispcolor_DrawPixel(x, y, newColorRgb.word);
 1045              		.loc 1 179 20 is_stmt 0 view .LVU272
 1046 00b2 63F3CF22 		bfi	r2, r3, #11, #5
 180:Core/Src/dispcolor.c **** }
 1047              		.loc 1 180 2 is_stmt 1 view .LVU273
 1048 00b6 92B2     		uxth	r2, r2
 1049              	.LVL102:
 180:Core/Src/dispcolor.c **** }
 1050              		.loc 1 180 2 is_stmt 0 view .LVU274
 1051 00b8 2946     		mov	r1, r5
 1052              	.LVL103:
 180:Core/Src/dispcolor.c **** }
 1053              		.loc 1 180 2 view .LVU275
 1054 00ba 2046     		mov	r0, r4
 1055              	.LVL104:
 180:Core/Src/dispcolor.c **** }
 1056              		.loc 1 180 2 view .LVU276
 1057 00bc FFF7FEFF 		bl	dispcolor_DrawPixel
 1058              	.LVL105:
 181:Core/Src/dispcolor.c **** 
 1059              		.loc 1 181 1 view .LVU277
 1060 00c0 BDEC028B 		vldm	sp!, {d8}
 1061              		.cfi_restore 80
 1062              		.cfi_restore 81
 1063              		.cfi_def_cfa_offset 16
 1064              	.LVL106:
 181:Core/Src/dispcolor.c **** 
 1065              		.loc 1 181 1 view .LVU278
 1066 00c4 70BD     		pop	{r4, r5, r6, pc}
 181:Core/Src/dispcolor.c **** 
 1067              		.loc 1 181 1 view .LVU279
 1068              		.cfi_endproc
 1069              	.LFE15:
 1071              		.section	.text.ipart,"ax",%progbits
 1072              		.align	1
 1073              		.global	ipart
 1074              		.syntax unified
 1075              		.thumb
 1076              		.thumb_func
ARM GAS  C:\Users\kroko\AppData\Local\Temp\ccNEdXH2.s 			page 33


 1078              	ipart:
 1079              	.LVL107:
 1080              	.LFB16:
 184:Core/Src/dispcolor.c **** 	return (int) x;
 1081              		.loc 1 184 20 is_stmt 1 view -0
 1082              		.cfi_startproc
 1083              		@ args = 0, pretend = 0, frame = 0
 1084              		@ frame_needed = 0, uses_anonymous_args = 0
 1085              		@ link register save eliminated.
 185:Core/Src/dispcolor.c **** }
 1086              		.loc 1 185 2 view .LVU281
 186:Core/Src/dispcolor.c **** 
 1087              		.loc 1 186 1 is_stmt 0 view .LVU282
 1088 0000 FDEEC07A 		vcvt.s32.f32	s15, s0
 1089 0004 17EE900A 		vmov	r0, s15	@ int
 1090 0008 7047     		bx	lr
 1091              		.cfi_endproc
 1092              	.LFE16:
 1094              		.section	.text.fpart,"ax",%progbits
 1095              		.align	1
 1096              		.global	fpart
 1097              		.syntax unified
 1098              		.thumb
 1099              		.thumb_func
 1101              	fpart:
 1102              	.LVL108:
 1103              	.LFB17:
 189:Core/Src/dispcolor.c **** 	return x - (int) x;
 1104              		.loc 1 189 22 is_stmt 1 view -0
 1105              		.cfi_startproc
 1106              		@ args = 0, pretend = 0, frame = 0
 1107              		@ frame_needed = 0, uses_anonymous_args = 0
 1108              		@ link register save eliminated.
 190:Core/Src/dispcolor.c **** }
 1109              		.loc 1 190 2 view .LVU284
 190:Core/Src/dispcolor.c **** }
 1110              		.loc 1 190 13 is_stmt 0 view .LVU285
 1111 0000 FDEEC07A 		vcvt.s32.f32	s15, s0
 190:Core/Src/dispcolor.c **** }
 1112              		.loc 1 190 11 view .LVU286
 1113 0004 F8EEE77A 		vcvt.f32.s32	s15, s15
 191:Core/Src/dispcolor.c **** 
 1114              		.loc 1 191 1 view .LVU287
 1115 0008 30EE670A 		vsub.f32	s0, s0, s15
 1116              	.LVL109:
 191:Core/Src/dispcolor.c **** 
 1117              		.loc 1 191 1 view .LVU288
 1118 000c 7047     		bx	lr
 1119              		.cfi_endproc
 1120              	.LFE17:
 1122              		.section	.text.rfpart,"ax",%progbits
 1123              		.align	1
 1124              		.global	rfpart
 1125              		.syntax unified
 1126              		.thumb
 1127              		.thumb_func
 1129              	rfpart:
ARM GAS  C:\Users\kroko\AppData\Local\Temp\ccNEdXH2.s 			page 34


 1130              	.LVL110:
 1131              	.LFB18:
 193:Core/Src/dispcolor.c **** 	return 1 - fpart(x);
 1132              		.loc 1 193 23 is_stmt 1 view -0
 1133              		.cfi_startproc
 1134              		@ args = 0, pretend = 0, frame = 0
 1135              		@ frame_needed = 0, uses_anonymous_args = 0
 193:Core/Src/dispcolor.c **** 	return 1 - fpart(x);
 1136              		.loc 1 193 23 is_stmt 0 view .LVU290
 1137 0000 08B5     		push	{r3, lr}
 1138              		.cfi_def_cfa_offset 8
 1139              		.cfi_offset 3, -8
 1140              		.cfi_offset 14, -4
 194:Core/Src/dispcolor.c **** }
 1141              		.loc 1 194 2 is_stmt 1 view .LVU291
 194:Core/Src/dispcolor.c **** }
 1142              		.loc 1 194 13 is_stmt 0 view .LVU292
 1143 0002 FFF7FEFF 		bl	fpart
 1144              	.LVL111:
 195:Core/Src/dispcolor.c **** 
 1145              		.loc 1 195 1 view .LVU293
 1146 0006 F7EE007A 		vmov.f32	s15, #1.0e+0
 1147 000a 37EEC00A 		vsub.f32	s0, s15, s0
 1148 000e 08BD     		pop	{r3, pc}
 1149              		.cfi_endproc
 1150              	.LFE18:
 1152              		.section	.text.swap,"ax",%progbits
 1153              		.align	1
 1154              		.global	swap
 1155              		.syntax unified
 1156              		.thumb
 1157              		.thumb_func
 1159              	swap:
 1160              	.LVL112:
 1161              	.LFB19:
 197:Core/Src/dispcolor.c **** 	int16_t temp = *a;
 1162              		.loc 1 197 35 is_stmt 1 view -0
 1163              		.cfi_startproc
 1164              		@ args = 0, pretend = 0, frame = 0
 1165              		@ frame_needed = 0, uses_anonymous_args = 0
 1166              		@ link register save eliminated.
 198:Core/Src/dispcolor.c **** 	*a = *b;
 1167              		.loc 1 198 2 view .LVU295
 198:Core/Src/dispcolor.c **** 	*a = *b;
 1168              		.loc 1 198 10 is_stmt 0 view .LVU296
 1169 0000 B0F90030 		ldrsh	r3, [r0]
 1170              	.LVL113:
 199:Core/Src/dispcolor.c **** 	*b = temp;
 1171              		.loc 1 199 2 is_stmt 1 view .LVU297
 199:Core/Src/dispcolor.c **** 	*b = temp;
 1172              		.loc 1 199 7 is_stmt 0 view .LVU298
 1173 0004 B1F90020 		ldrsh	r2, [r1]
 199:Core/Src/dispcolor.c **** 	*b = temp;
 1174              		.loc 1 199 5 view .LVU299
 1175 0008 0280     		strh	r2, [r0]	@ movhi
 200:Core/Src/dispcolor.c **** }
 1176              		.loc 1 200 2 is_stmt 1 view .LVU300
ARM GAS  C:\Users\kroko\AppData\Local\Temp\ccNEdXH2.s 			page 35


 200:Core/Src/dispcolor.c **** }
 1177              		.loc 1 200 5 is_stmt 0 view .LVU301
 1178 000a 0B80     		strh	r3, [r1]	@ movhi
 201:Core/Src/dispcolor.c **** 
 1179              		.loc 1 201 1 view .LVU302
 1180 000c 7047     		bx	lr
 1181              		.cfi_endproc
 1182              	.LFE19:
 1184              		.global	__aeabi_i2d
 1185              		.global	__aeabi_d2f
 1186              		.global	__aeabi_dadd
 1187              		.section	.text.DrawLine_Slow_Wu,"ax",%progbits
 1188              		.align	1
 1189              		.syntax unified
 1190              		.thumb
 1191              		.thumb_func
 1193              	DrawLine_Slow_Wu:
 1194              	.LVL114:
 1195              	.LFB20:
 204:Core/Src/dispcolor.c **** 	uint8_t steep = abs(y2 - y1) > abs(x2 - x1) ? 1 : 0;
 1196              		.loc 1 204 19 is_stmt 1 view -0
 1197              		.cfi_startproc
 1198              		@ args = 4, pretend = 0, frame = 8
 1199              		@ frame_needed = 0, uses_anonymous_args = 0
 204:Core/Src/dispcolor.c **** 	uint8_t steep = abs(y2 - y1) > abs(x2 - x1) ? 1 : 0;
 1200              		.loc 1 204 19 is_stmt 0 view .LVU304
 1201 0000 2DE9F047 		push	{r4, r5, r6, r7, r8, r9, r10, lr}
 1202              		.cfi_def_cfa_offset 32
 1203              		.cfi_offset 4, -32
 1204              		.cfi_offset 5, -28
 1205              		.cfi_offset 6, -24
 1206              		.cfi_offset 7, -20
 1207              		.cfi_offset 8, -16
 1208              		.cfi_offset 9, -12
 1209              		.cfi_offset 10, -8
 1210              		.cfi_offset 14, -4
 1211 0004 2DED068B 		vpush.64	{d8, d9, d10}
 1212              		.cfi_def_cfa_offset 56
 1213              		.cfi_offset 80, -56
 1214              		.cfi_offset 81, -52
 1215              		.cfi_offset 82, -48
 1216              		.cfi_offset 83, -44
 1217              		.cfi_offset 84, -40
 1218              		.cfi_offset 85, -36
 1219 0008 82B0     		sub	sp, sp, #8
 1220              		.cfi_def_cfa_offset 64
 1221 000a BDF84050 		ldrh	r5, [sp, #64]
 1222 000e ADF80600 		strh	r0, [sp, #6]	@ movhi
 1223 0012 ADF80410 		strh	r1, [sp, #4]	@ movhi
 1224 0016 ADF80220 		strh	r2, [sp, #2]	@ movhi
 1225 001a ADF80030 		strh	r3, [sp]	@ movhi
 205:Core/Src/dispcolor.c **** 	if (steep) {
 1226              		.loc 1 205 2 is_stmt 1 view .LVU305
 205:Core/Src/dispcolor.c **** 	if (steep) {
 1227              		.loc 1 205 25 is_stmt 0 view .LVU306
 1228 001e 0FFA83FA 		sxth	r10, r3
 1229 0022 0BB2     		sxth	r3, r1
ARM GAS  C:\Users\kroko\AppData\Local\Temp\ccNEdXH2.s 			page 36


 1230              	.LVL115:
 205:Core/Src/dispcolor.c **** 	if (steep) {
 1231              		.loc 1 205 25 view .LVU307
 1232 0024 AAEB030A 		sub	r10, r10, r3
 205:Core/Src/dispcolor.c **** 	if (steep) {
 1233              		.loc 1 205 18 view .LVU308
 1234 0028 BAF1000F 		cmp	r10, #0
 1235 002c B8BF     		it	lt
 1236 002e CAF1000A 		rsblt	r10, r10, #0
 205:Core/Src/dispcolor.c **** 	if (steep) {
 1237              		.loc 1 205 40 view .LVU309
 1238 0032 14B2     		sxth	r4, r2
 1239 0034 03B2     		sxth	r3, r0
 1240 0036 E41A     		subs	r4, r4, r3
 205:Core/Src/dispcolor.c **** 	if (steep) {
 1241              		.loc 1 205 33 view .LVU310
 1242 0038 002C     		cmp	r4, #0
 1243 003a B8BF     		it	lt
 1244 003c 6442     		rsblt	r4, r4, #0
 1245              	.LVL116:
 206:Core/Src/dispcolor.c **** 		swap(&x1, &y1);
 1246              		.loc 1 206 2 is_stmt 1 view .LVU311
 206:Core/Src/dispcolor.c **** 		swap(&x1, &y1);
 1247              		.loc 1 206 5 is_stmt 0 view .LVU312
 1248 003e A245     		cmp	r10, r4
 1249 0040 00F3C880 		bgt	.L92
 1250              	.LVL117:
 1251              	.L77:
 210:Core/Src/dispcolor.c **** 		swap(&x1, &x2);
 1252              		.loc 1 210 2 is_stmt 1 view .LVU313
 210:Core/Src/dispcolor.c **** 		swap(&x1, &x2);
 1253              		.loc 1 210 9 is_stmt 0 view .LVU314
 1254 0044 BDF90620 		ldrsh	r2, [sp, #6]
 1255 0048 BDF90230 		ldrsh	r3, [sp, #2]
 210:Core/Src/dispcolor.c **** 		swap(&x1, &x2);
 1256              		.loc 1 210 5 view .LVU315
 1257 004c 9A42     		cmp	r2, r3
 1258 004e 00F3CC80 		bgt	.L93
 1259              	.L78:
 215:Core/Src/dispcolor.c **** 	float dy = y2 - y1;
 1260              		.loc 1 215 2 is_stmt 1 view .LVU316
 215:Core/Src/dispcolor.c **** 	float dy = y2 - y1;
 1261              		.loc 1 215 16 is_stmt 0 view .LVU317
 1262 0052 BDF90680 		ldrsh	r8, [sp, #6]
 1263 0056 BDF90230 		ldrsh	r3, [sp, #2]
 1264 005a A3EB0803 		sub	r3, r3, r8
 215:Core/Src/dispcolor.c **** 	float dy = y2 - y1;
 1265              		.loc 1 215 8 view .LVU318
 1266 005e 07EE903A 		vmov	s15, r3	@ int
 1267 0062 F8EEE77A 		vcvt.f32.s32	s15, s15
 1268              	.LVL118:
 216:Core/Src/dispcolor.c **** 	float gradient = dx == 0 ? 1 : dy / dx;
 1269              		.loc 1 216 2 is_stmt 1 view .LVU319
 216:Core/Src/dispcolor.c **** 	float gradient = dx == 0 ? 1 : dy / dx;
 1270              		.loc 1 216 16 is_stmt 0 view .LVU320
 1271 0066 BDF90490 		ldrsh	r9, [sp, #4]
 1272 006a BDF90030 		ldrsh	r3, [sp]
ARM GAS  C:\Users\kroko\AppData\Local\Temp\ccNEdXH2.s 			page 37


 1273 006e A3EB0903 		sub	r3, r3, r9
 216:Core/Src/dispcolor.c **** 	float gradient = dx == 0 ? 1 : dy / dx;
 1274              		.loc 1 216 8 view .LVU321
 1275 0072 07EE103A 		vmov	s14, r3	@ int
 1276 0076 B8EEC77A 		vcvt.f32.s32	s14, s14
 1277              	.LVL119:
 217:Core/Src/dispcolor.c **** 
 1278              		.loc 1 217 2 is_stmt 1 view .LVU322
 217:Core/Src/dispcolor.c **** 
 1279              		.loc 1 217 31 is_stmt 0 view .LVU323
 1280 007a F5EE407A 		vcmp.f32	s15, #0
 1281 007e F1EE10FA 		vmrs	APSR_nzcv, FPSCR
 1282 0082 00F0BD80 		beq	.L90
 217:Core/Src/dispcolor.c **** 
 1283              		.loc 1 217 31 discriminator 1 view .LVU324
 1284 0086 87EE279A 		vdiv.f32	s18, s14, s15
 1285              	.L79:
 1286              	.LVL120:
 220:Core/Src/dispcolor.c **** 	float yend = gradient * (xend - x1) + y1;
 1287              		.loc 1 220 2 is_stmt 1 view .LVU325
 220:Core/Src/dispcolor.c **** 	float yend = gradient * (xend - x1) + y1;
 1288              		.loc 1 220 15 is_stmt 0 view .LVU326
 1289 008a 4046     		mov	r0, r8
 1290 008c FFF7FEFF 		bl	__aeabi_i2d
 1291              	.LVL121:
 220:Core/Src/dispcolor.c **** 	float yend = gradient * (xend - x1) + y1;
 1292              		.loc 1 220 15 view .LVU327
 1293 0090 0646     		mov	r6, r0
 1294 0092 0F46     		mov	r7, r1
 220:Core/Src/dispcolor.c **** 	float yend = gradient * (xend - x1) + y1;
 1295              		.loc 1 220 8 view .LVU328
 1296 0094 FFF7FEFF 		bl	__aeabi_d2f
 1297              	.LVL122:
 1298 0098 08EE900A 		vmov	s17, r0
 1299              	.LVL123:
 221:Core/Src/dispcolor.c **** 	float xgap = rfpart(x1 + 0.5);
 1300              		.loc 1 221 2 is_stmt 1 view .LVU329
 221:Core/Src/dispcolor.c **** 	float xgap = rfpart(x1 + 0.5);
 1301              		.loc 1 221 32 is_stmt 0 view .LVU330
 1302 009c 07EE908A 		vmov	s15, r8	@ int
 1303 00a0 B8EEE78A 		vcvt.f32.s32	s16, s15
 1304 00a4 38EEC88A 		vsub.f32	s16, s17, s16
 221:Core/Src/dispcolor.c **** 	float xgap = rfpart(x1 + 0.5);
 1305              		.loc 1 221 24 view .LVU331
 1306 00a8 28EE098A 		vmul.f32	s16, s16, s18
 221:Core/Src/dispcolor.c **** 	float xgap = rfpart(x1 + 0.5);
 1307              		.loc 1 221 38 view .LVU332
 1308 00ac 07EE909A 		vmov	s15, r9	@ int
 1309 00b0 F8EEE77A 		vcvt.f32.s32	s15, s15
 221:Core/Src/dispcolor.c **** 	float xgap = rfpart(x1 + 0.5);
 1310              		.loc 1 221 8 view .LVU333
 1311 00b4 38EE278A 		vadd.f32	s16, s16, s15
 1312              	.LVL124:
 222:Core/Src/dispcolor.c **** 	int16_t xpxl1 = xend; // this will be used in the main loop
 1313              		.loc 1 222 2 is_stmt 1 view .LVU334
 222:Core/Src/dispcolor.c **** 	int16_t xpxl1 = xend; // this will be used in the main loop
 1314              		.loc 1 222 25 is_stmt 0 view .LVU335
ARM GAS  C:\Users\kroko\AppData\Local\Temp\ccNEdXH2.s 			page 38


 1315 00b8 0022     		movs	r2, #0
 1316 00ba 914B     		ldr	r3, .L94
 1317 00bc 3046     		mov	r0, r6
 1318              	.LVL125:
 222:Core/Src/dispcolor.c **** 	int16_t xpxl1 = xend; // this will be used in the main loop
 1319              		.loc 1 222 25 view .LVU336
 1320 00be 3946     		mov	r1, r7
 1321 00c0 FFF7FEFF 		bl	__aeabi_dadd
 1322              	.LVL126:
 222:Core/Src/dispcolor.c **** 	int16_t xpxl1 = xend; // this will be used in the main loop
 1323              		.loc 1 222 15 view .LVU337
 1324 00c4 FFF7FEFF 		bl	__aeabi_d2f
 1325              	.LVL127:
 1326 00c8 00EE100A 		vmov	s0, r0
 1327 00cc FFF7FEFF 		bl	rfpart
 1328              	.LVL128:
 1329 00d0 F0EE409A 		vmov.f32	s19, s0
 1330              	.LVL129:
 223:Core/Src/dispcolor.c **** 	int16_t ypxl1 = ipart(yend);
 1331              		.loc 1 223 2 is_stmt 1 view .LVU338
 223:Core/Src/dispcolor.c **** 	int16_t ypxl1 = ipart(yend);
 1332              		.loc 1 223 10 is_stmt 0 view .LVU339
 1333 00d4 FDEEE88A 		vcvt.s32.f32	s17, s17
 1334              	.LVL130:
 223:Core/Src/dispcolor.c **** 	int16_t ypxl1 = ipart(yend);
 1335              		.loc 1 223 10 view .LVU340
 1336 00d8 18EE903A 		vmov	r3, s17	@ int
 1337 00dc 1FB2     		sxth	r7, r3
 1338              	.LVL131:
 224:Core/Src/dispcolor.c **** 	if (steep) {
 1339              		.loc 1 224 2 is_stmt 1 view .LVU341
 224:Core/Src/dispcolor.c **** 	if (steep) {
 1340              		.loc 1 224 18 is_stmt 0 view .LVU342
 1341 00de B0EE480A 		vmov.f32	s0, s16
 1342              	.LVL132:
 224:Core/Src/dispcolor.c **** 	if (steep) {
 1343              		.loc 1 224 18 view .LVU343
 1344 00e2 FFF7FEFF 		bl	ipart
 1345              	.LVL133:
 1346 00e6 0646     		mov	r6, r0
 224:Core/Src/dispcolor.c **** 	if (steep) {
 1347              		.loc 1 224 10 discriminator 1 view .LVU344
 1348 00e8 0FFA80F8 		sxth	r8, r0
 1349              	.LVL134:
 225:Core/Src/dispcolor.c **** 		DrawPixel(ypxl1, xpxl1, color, rfpart(yend) * xgap);
 1350              		.loc 1 225 2 is_stmt 1 view .LVU345
 225:Core/Src/dispcolor.c **** 		DrawPixel(ypxl1, xpxl1, color, rfpart(yend) * xgap);
 1351              		.loc 1 225 5 is_stmt 0 view .LVU346
 1352 00ec A245     		cmp	r10, r4
 1353 00ee 40F38A80 		ble	.L80
 226:Core/Src/dispcolor.c **** 		DrawPixel(ypxl1 + 1, xpxl1, color, fpart(yend) * xgap);
 1354              		.loc 1 226 3 is_stmt 1 view .LVU347
 226:Core/Src/dispcolor.c **** 		DrawPixel(ypxl1 + 1, xpxl1, color, fpart(yend) * xgap);
 1355              		.loc 1 226 34 is_stmt 0 view .LVU348
 1356 00f2 B0EE480A 		vmov.f32	s0, s16
 1357 00f6 FFF7FEFF 		bl	rfpart
 1358              	.LVL135:
ARM GAS  C:\Users\kroko\AppData\Local\Temp\ccNEdXH2.s 			page 39


 226:Core/Src/dispcolor.c **** 		DrawPixel(ypxl1 + 1, xpxl1, color, fpart(yend) * xgap);
 1359              		.loc 1 226 3 discriminator 1 view .LVU349
 1360 00fa 20EE290A 		vmul.f32	s0, s0, s19
 1361 00fe 2A46     		mov	r2, r5
 1362 0100 3946     		mov	r1, r7
 1363 0102 4046     		mov	r0, r8
 1364 0104 FFF7FEFF 		bl	DrawPixel
 1365              	.LVL136:
 227:Core/Src/dispcolor.c **** 	} else {
 1366              		.loc 1 227 3 is_stmt 1 view .LVU350
 227:Core/Src/dispcolor.c **** 	} else {
 1367              		.loc 1 227 19 is_stmt 0 view .LVU351
 1368 0108 0136     		adds	r6, r6, #1
 1369 010a B6B2     		uxth	r6, r6
 227:Core/Src/dispcolor.c **** 	} else {
 1370              		.loc 1 227 38 view .LVU352
 1371 010c B0EE480A 		vmov.f32	s0, s16
 1372 0110 FFF7FEFF 		bl	fpart
 1373              	.LVL137:
 227:Core/Src/dispcolor.c **** 	} else {
 1374              		.loc 1 227 3 discriminator 1 view .LVU353
 1375 0114 20EE290A 		vmul.f32	s0, s0, s19
 1376 0118 2A46     		mov	r2, r5
 1377 011a 3946     		mov	r1, r7
 1378 011c 30B2     		sxth	r0, r6
 1379 011e FFF7FEFF 		bl	DrawPixel
 1380              	.LVL138:
 1381              	.L81:
 233:Core/Src/dispcolor.c **** 
 1382              		.loc 1 233 2 is_stmt 1 view .LVU354
 233:Core/Src/dispcolor.c **** 
 1383              		.loc 1 233 8 is_stmt 0 view .LVU355
 1384 0122 39EE088A 		vadd.f32	s16, s18, s16
 1385              	.LVL139:
 236:Core/Src/dispcolor.c **** 	yend = gradient * (xend - x2) + y2;
 1386              		.loc 1 236 2 is_stmt 1 view .LVU356
 236:Core/Src/dispcolor.c **** 	yend = gradient * (xend - x2) + y2;
 1387              		.loc 1 236 9 is_stmt 0 view .LVU357
 1388 0126 BDF90260 		ldrsh	r6, [sp, #2]
 1389 012a 3046     		mov	r0, r6
 1390 012c FFF7FEFF 		bl	__aeabi_i2d
 1391              	.LVL140:
 1392 0130 8046     		mov	r8, r0
 1393              	.LVL141:
 236:Core/Src/dispcolor.c **** 	yend = gradient * (xend - x2) + y2;
 1394              		.loc 1 236 9 view .LVU358
 1395 0132 8946     		mov	r9, r1
 236:Core/Src/dispcolor.c **** 	yend = gradient * (xend - x2) + y2;
 1396              		.loc 1 236 7 view .LVU359
 1397 0134 FFF7FEFF 		bl	__aeabi_d2f
 1398              	.LVL142:
 1399 0138 09EE900A 		vmov	s19, r0
 1400              	.LVL143:
 237:Core/Src/dispcolor.c **** 	xgap = fpart(x2 + 0.5);
 1401              		.loc 1 237 2 is_stmt 1 view .LVU360
 237:Core/Src/dispcolor.c **** 	xgap = fpart(x2 + 0.5);
 1402              		.loc 1 237 26 is_stmt 0 view .LVU361
ARM GAS  C:\Users\kroko\AppData\Local\Temp\ccNEdXH2.s 			page 40


 1403 013c 07EE906A 		vmov	s15, r6	@ int
 1404 0140 F8EEE78A 		vcvt.f32.s32	s17, s15
 1405 0144 79EEE88A 		vsub.f32	s17, s19, s17
 237:Core/Src/dispcolor.c **** 	xgap = fpart(x2 + 0.5);
 1406              		.loc 1 237 18 view .LVU362
 1407 0148 68EE898A 		vmul.f32	s17, s17, s18
 237:Core/Src/dispcolor.c **** 	xgap = fpart(x2 + 0.5);
 1408              		.loc 1 237 32 view .LVU363
 1409 014c BDF90030 		ldrsh	r3, [sp]
 1410 0150 07EE903A 		vmov	s15, r3	@ int
 1411 0154 F8EEE77A 		vcvt.f32.s32	s15, s15
 237:Core/Src/dispcolor.c **** 	xgap = fpart(x2 + 0.5);
 1412              		.loc 1 237 7 view .LVU364
 1413 0158 78EEA78A 		vadd.f32	s17, s17, s15
 1414              	.LVL144:
 238:Core/Src/dispcolor.c **** 	int16_t xpxl2 = xend; //this will be used in the main loop
 1415              		.loc 1 238 2 is_stmt 1 view .LVU365
 238:Core/Src/dispcolor.c **** 	int16_t xpxl2 = xend; //this will be used in the main loop
 1416              		.loc 1 238 18 is_stmt 0 view .LVU366
 1417 015c 0022     		movs	r2, #0
 1418 015e 684B     		ldr	r3, .L94
 1419 0160 4046     		mov	r0, r8
 1420              	.LVL145:
 238:Core/Src/dispcolor.c **** 	int16_t xpxl2 = xend; //this will be used in the main loop
 1421              		.loc 1 238 18 view .LVU367
 1422 0162 4946     		mov	r1, r9
 1423 0164 FFF7FEFF 		bl	__aeabi_dadd
 1424              	.LVL146:
 238:Core/Src/dispcolor.c **** 	int16_t xpxl2 = xend; //this will be used in the main loop
 1425              		.loc 1 238 9 view .LVU368
 1426 0168 FFF7FEFF 		bl	__aeabi_d2f
 1427              	.LVL147:
 1428 016c 00EE100A 		vmov	s0, r0
 1429 0170 FFF7FEFF 		bl	fpart
 1430              	.LVL148:
 1431 0174 B0EE40AA 		vmov.f32	s20, s0
 1432              	.LVL149:
 239:Core/Src/dispcolor.c **** 	int16_t ypxl2 = ipart(yend);
 1433              		.loc 1 239 2 is_stmt 1 view .LVU369
 239:Core/Src/dispcolor.c **** 	int16_t ypxl2 = ipart(yend);
 1434              		.loc 1 239 10 is_stmt 0 view .LVU370
 1435 0178 FDEEE99A 		vcvt.s32.f32	s19, s19
 1436              	.LVL150:
 239:Core/Src/dispcolor.c **** 	int16_t ypxl2 = ipart(yend);
 1437              		.loc 1 239 10 view .LVU371
 1438 017c 19EE903A 		vmov	r3, s19	@ int
 1439 0180 1EB2     		sxth	r6, r3
 1440              	.LVL151:
 240:Core/Src/dispcolor.c **** 
 1441              		.loc 1 240 2 is_stmt 1 view .LVU372
 240:Core/Src/dispcolor.c **** 
 1442              		.loc 1 240 18 is_stmt 0 view .LVU373
 1443 0182 B0EE680A 		vmov.f32	s0, s17
 1444              	.LVL152:
 240:Core/Src/dispcolor.c **** 
 1445              		.loc 1 240 18 view .LVU374
 1446 0186 FFF7FEFF 		bl	ipart
ARM GAS  C:\Users\kroko\AppData\Local\Temp\ccNEdXH2.s 			page 41


 1447              	.LVL153:
 1448 018a 8046     		mov	r8, r0
 240:Core/Src/dispcolor.c **** 
 1449              		.loc 1 240 10 discriminator 1 view .LVU375
 1450 018c 0FFA80F9 		sxth	r9, r0
 1451              	.LVL154:
 242:Core/Src/dispcolor.c **** 		DrawPixel(ypxl2, xpxl2, color, rfpart(yend) * xgap);
 1452              		.loc 1 242 2 is_stmt 1 view .LVU376
 242:Core/Src/dispcolor.c **** 		DrawPixel(ypxl2, xpxl2, color, rfpart(yend) * xgap);
 1453              		.loc 1 242 5 is_stmt 0 view .LVU377
 1454 0190 A245     		cmp	r10, r4
 1455 0192 51DD     		ble	.L82
 243:Core/Src/dispcolor.c **** 		DrawPixel(ypxl2 + 1, xpxl2, color, fpart(yend) * xgap);
 1456              		.loc 1 243 3 is_stmt 1 view .LVU378
 243:Core/Src/dispcolor.c **** 		DrawPixel(ypxl2 + 1, xpxl2, color, fpart(yend) * xgap);
 1457              		.loc 1 243 34 is_stmt 0 view .LVU379
 1458 0194 B0EE680A 		vmov.f32	s0, s17
 1459 0198 FFF7FEFF 		bl	rfpart
 1460              	.LVL155:
 243:Core/Src/dispcolor.c **** 		DrawPixel(ypxl2 + 1, xpxl2, color, fpart(yend) * xgap);
 1461              		.loc 1 243 3 discriminator 1 view .LVU380
 1462 019c 20EE0A0A 		vmul.f32	s0, s0, s20
 1463 01a0 2A46     		mov	r2, r5
 1464 01a2 3146     		mov	r1, r6
 1465 01a4 4846     		mov	r0, r9
 1466 01a6 FFF7FEFF 		bl	DrawPixel
 1467              	.LVL156:
 244:Core/Src/dispcolor.c **** 	} else {
 1468              		.loc 1 244 3 is_stmt 1 view .LVU381
 244:Core/Src/dispcolor.c **** 	} else {
 1469              		.loc 1 244 19 is_stmt 0 view .LVU382
 1470 01aa 08F10108 		add	r8, r8, #1
 1471 01ae 1FFA88F8 		uxth	r8, r8
 244:Core/Src/dispcolor.c **** 	} else {
 1472              		.loc 1 244 38 view .LVU383
 1473 01b2 B0EE680A 		vmov.f32	s0, s17
 1474 01b6 FFF7FEFF 		bl	fpart
 1475              	.LVL157:
 244:Core/Src/dispcolor.c **** 	} else {
 1476              		.loc 1 244 3 discriminator 1 view .LVU384
 1477 01ba 20EE0A0A 		vmul.f32	s0, s0, s20
 1478 01be 2A46     		mov	r2, r5
 1479 01c0 3146     		mov	r1, r6
 1480 01c2 0FFA88F0 		sxth	r0, r8
 1481 01c6 FFF7FEFF 		bl	DrawPixel
 1482              	.LVL158:
 1483              	.L83:
 251:Core/Src/dispcolor.c **** 		for (int16_t x = xpxl1 + 1; x <= xpxl2 - 1; x++) {
 1484              		.loc 1 251 2 is_stmt 1 view .LVU385
 251:Core/Src/dispcolor.c **** 		for (int16_t x = xpxl1 + 1; x <= xpxl2 - 1; x++) {
 1485              		.loc 1 251 5 is_stmt 0 view .LVU386
 1486 01ca A245     		cmp	r10, r4
 1487 01cc 74DD     		ble	.L84
 252:Core/Src/dispcolor.c **** 			DrawPixel(ipart(intery), x, color, rfpart(intery));
 1488              		.loc 1 252 3 is_stmt 1 view .LVU387
 1489              	.LBB10:
 252:Core/Src/dispcolor.c **** 			DrawPixel(ipart(intery), x, color, rfpart(intery));
ARM GAS  C:\Users\kroko\AppData\Local\Temp\ccNEdXH2.s 			page 42


 1490              		.loc 1 252 8 view .LVU388
 252:Core/Src/dispcolor.c **** 			DrawPixel(ipart(intery), x, color, rfpart(intery));
 1491              		.loc 1 252 26 is_stmt 0 view .LVU389
 1492 01ce 0137     		adds	r7, r7, #1
 1493              	.LVL159:
 252:Core/Src/dispcolor.c **** 			DrawPixel(ipart(intery), x, color, rfpart(intery));
 1494              		.loc 1 252 16 view .LVU390
 1495 01d0 3FB2     		sxth	r7, r7
 1496              	.LVL160:
 252:Core/Src/dispcolor.c **** 			DrawPixel(ipart(intery), x, color, rfpart(intery));
 1497              		.loc 1 252 3 view .LVU391
 1498 01d2 6AE0     		b	.L85
 1499              	.LVL161:
 1500              	.L92:
 252:Core/Src/dispcolor.c **** 			DrawPixel(ipart(intery), x, color, rfpart(intery));
 1501              		.loc 1 252 3 view .LVU392
 1502              	.LBE10:
 207:Core/Src/dispcolor.c **** 		swap(&x2, &y2);
 1503              		.loc 1 207 3 is_stmt 1 view .LVU393
 1504 01d4 01A9     		add	r1, sp, #4
 1505              	.LVL162:
 207:Core/Src/dispcolor.c **** 		swap(&x2, &y2);
 1506              		.loc 1 207 3 is_stmt 0 view .LVU394
 1507 01d6 0DF10600 		add	r0, sp, #6
 1508              	.LVL163:
 207:Core/Src/dispcolor.c **** 		swap(&x2, &y2);
 1509              		.loc 1 207 3 view .LVU395
 1510 01da FFF7FEFF 		bl	swap
 1511              	.LVL164:
 208:Core/Src/dispcolor.c **** 	}
 1512              		.loc 1 208 3 is_stmt 1 view .LVU396
 1513 01de 6946     		mov	r1, sp
 1514 01e0 0DF10200 		add	r0, sp, #2
 1515 01e4 FFF7FEFF 		bl	swap
 1516              	.LVL165:
 1517 01e8 2CE7     		b	.L77
 1518              	.L93:
 211:Core/Src/dispcolor.c **** 		swap(&y1, &y2);
 1519              		.loc 1 211 3 view .LVU397
 1520 01ea 0DF10201 		add	r1, sp, #2
 1521 01ee 0DF10600 		add	r0, sp, #6
 1522 01f2 FFF7FEFF 		bl	swap
 1523              	.LVL166:
 212:Core/Src/dispcolor.c **** 	}
 1524              		.loc 1 212 3 view .LVU398
 1525 01f6 6946     		mov	r1, sp
 1526 01f8 01A8     		add	r0, sp, #4
 1527 01fa FFF7FEFF 		bl	swap
 1528              	.LVL167:
 1529 01fe 28E7     		b	.L78
 1530              	.LVL168:
 1531              	.L90:
 217:Core/Src/dispcolor.c **** 
 1532              		.loc 1 217 31 is_stmt 0 discriminator 2 view .LVU399
 1533 0200 B7EE009A 		vmov.f32	s18, #1.0e+0
 1534 0204 41E7     		b	.L79
 1535              	.LVL169:
ARM GAS  C:\Users\kroko\AppData\Local\Temp\ccNEdXH2.s 			page 43


 1536              	.L80:
 229:Core/Src/dispcolor.c **** 		DrawPixel(xpxl1, ypxl1 + 1, color, fpart(yend) * xgap);
 1537              		.loc 1 229 3 is_stmt 1 view .LVU400
 229:Core/Src/dispcolor.c **** 		DrawPixel(xpxl1, ypxl1 + 1, color, fpart(yend) * xgap);
 1538              		.loc 1 229 34 is_stmt 0 view .LVU401
 1539 0206 B0EE480A 		vmov.f32	s0, s16
 1540 020a FFF7FEFF 		bl	rfpart
 1541              	.LVL170:
 229:Core/Src/dispcolor.c **** 		DrawPixel(xpxl1, ypxl1 + 1, color, fpart(yend) * xgap);
 1542              		.loc 1 229 3 discriminator 1 view .LVU402
 1543 020e 20EE290A 		vmul.f32	s0, s0, s19
 1544 0212 2A46     		mov	r2, r5
 1545 0214 4146     		mov	r1, r8
 1546 0216 3846     		mov	r0, r7
 1547 0218 FFF7FEFF 		bl	DrawPixel
 1548              	.LVL171:
 230:Core/Src/dispcolor.c **** 	}
 1549              		.loc 1 230 3 is_stmt 1 view .LVU403
 230:Core/Src/dispcolor.c **** 	}
 1550              		.loc 1 230 26 is_stmt 0 view .LVU404
 1551 021c 0136     		adds	r6, r6, #1
 1552 021e B6B2     		uxth	r6, r6
 230:Core/Src/dispcolor.c **** 	}
 1553              		.loc 1 230 38 view .LVU405
 1554 0220 B0EE480A 		vmov.f32	s0, s16
 1555 0224 FFF7FEFF 		bl	fpart
 1556              	.LVL172:
 230:Core/Src/dispcolor.c **** 	}
 1557              		.loc 1 230 3 discriminator 1 view .LVU406
 1558 0228 20EE290A 		vmul.f32	s0, s0, s19
 1559 022c 2A46     		mov	r2, r5
 1560 022e 31B2     		sxth	r1, r6
 1561 0230 3846     		mov	r0, r7
 1562 0232 FFF7FEFF 		bl	DrawPixel
 1563              	.LVL173:
 1564 0236 74E7     		b	.L81
 1565              	.LVL174:
 1566              	.L82:
 246:Core/Src/dispcolor.c **** 		DrawPixel(xpxl2, ypxl2 + 1, color, fpart(yend) * xgap);
 1567              		.loc 1 246 3 is_stmt 1 view .LVU407
 246:Core/Src/dispcolor.c **** 		DrawPixel(xpxl2, ypxl2 + 1, color, fpart(yend) * xgap);
 1568              		.loc 1 246 34 is_stmt 0 view .LVU408
 1569 0238 B0EE680A 		vmov.f32	s0, s17
 1570 023c FFF7FEFF 		bl	rfpart
 1571              	.LVL175:
 246:Core/Src/dispcolor.c **** 		DrawPixel(xpxl2, ypxl2 + 1, color, fpart(yend) * xgap);
 1572              		.loc 1 246 3 discriminator 1 view .LVU409
 1573 0240 20EE0A0A 		vmul.f32	s0, s0, s20
 1574 0244 2A46     		mov	r2, r5
 1575 0246 4946     		mov	r1, r9
 1576 0248 3046     		mov	r0, r6
 1577 024a FFF7FEFF 		bl	DrawPixel
 1578              	.LVL176:
 247:Core/Src/dispcolor.c **** 	}
 1579              		.loc 1 247 3 is_stmt 1 view .LVU410
 247:Core/Src/dispcolor.c **** 	}
 1580              		.loc 1 247 26 is_stmt 0 view .LVU411
ARM GAS  C:\Users\kroko\AppData\Local\Temp\ccNEdXH2.s 			page 44


 1581 024e 08F10108 		add	r8, r8, #1
 1582 0252 1FFA88F8 		uxth	r8, r8
 247:Core/Src/dispcolor.c **** 	}
 1583              		.loc 1 247 38 view .LVU412
 1584 0256 B0EE680A 		vmov.f32	s0, s17
 1585 025a FFF7FEFF 		bl	fpart
 1586              	.LVL177:
 247:Core/Src/dispcolor.c **** 	}
 1587              		.loc 1 247 3 discriminator 1 view .LVU413
 1588 025e 20EE0A0A 		vmul.f32	s0, s0, s20
 1589 0262 2A46     		mov	r2, r5
 1590 0264 0FFA88F1 		sxth	r1, r8
 1591 0268 3046     		mov	r0, r6
 1592 026a FFF7FEFF 		bl	DrawPixel
 1593              	.LVL178:
 1594 026e ACE7     		b	.L83
 1595              	.LVL179:
 1596              	.L86:
 1597              	.LBB11:
 253:Core/Src/dispcolor.c **** 			DrawPixel(ipart(intery) + 1, x, color, fpart(intery));
 1598              		.loc 1 253 4 is_stmt 1 view .LVU414
 253:Core/Src/dispcolor.c **** 			DrawPixel(ipart(intery) + 1, x, color, fpart(intery));
 1599              		.loc 1 253 14 is_stmt 0 view .LVU415
 1600 0270 B0EE480A 		vmov.f32	s0, s16
 1601 0274 FFF7FEFF 		bl	ipart
 1602              	.LVL180:
 1603 0278 0446     		mov	r4, r0
 253:Core/Src/dispcolor.c **** 			DrawPixel(ipart(intery) + 1, x, color, fpart(intery));
 1604              		.loc 1 253 4 discriminator 1 view .LVU416
 1605 027a B0EE480A 		vmov.f32	s0, s16
 1606 027e FFF7FEFF 		bl	rfpart
 1607              	.LVL181:
 253:Core/Src/dispcolor.c **** 			DrawPixel(ipart(intery) + 1, x, color, fpart(intery));
 1608              		.loc 1 253 4 discriminator 2 view .LVU417
 1609 0282 2A46     		mov	r2, r5
 1610 0284 3946     		mov	r1, r7
 1611 0286 20B2     		sxth	r0, r4
 1612 0288 FFF7FEFF 		bl	DrawPixel
 1613              	.LVL182:
 254:Core/Src/dispcolor.c **** 			intery += gradient;
 1614              		.loc 1 254 4 is_stmt 1 view .LVU418
 254:Core/Src/dispcolor.c **** 			intery += gradient;
 1615              		.loc 1 254 28 is_stmt 0 discriminator 1 view .LVU419
 1616 028c 0134     		adds	r4, r4, #1
 1617 028e A4B2     		uxth	r4, r4
 254:Core/Src/dispcolor.c **** 			intery += gradient;
 1618              		.loc 1 254 4 discriminator 1 view .LVU420
 1619 0290 B0EE480A 		vmov.f32	s0, s16
 1620 0294 FFF7FEFF 		bl	fpart
 1621              	.LVL183:
 254:Core/Src/dispcolor.c **** 			intery += gradient;
 1622              		.loc 1 254 4 discriminator 2 view .LVU421
 1623 0298 2A46     		mov	r2, r5
 1624 029a 3946     		mov	r1, r7
 1625 029c 20B2     		sxth	r0, r4
 1626 029e FFF7FEFF 		bl	DrawPixel
 1627              	.LVL184:
ARM GAS  C:\Users\kroko\AppData\Local\Temp\ccNEdXH2.s 			page 45


 255:Core/Src/dispcolor.c **** 		}
 1628              		.loc 1 255 4 is_stmt 1 view .LVU422
 255:Core/Src/dispcolor.c **** 		}
 1629              		.loc 1 255 11 is_stmt 0 view .LVU423
 1630 02a2 38EE098A 		vadd.f32	s16, s16, s18
 1631              	.LVL185:
 252:Core/Src/dispcolor.c **** 			DrawPixel(ipart(intery), x, color, rfpart(intery));
 1632              		.loc 1 252 48 is_stmt 1 discriminator 3 view .LVU424
 1633 02a6 0137     		adds	r7, r7, #1
 1634              	.LVL186:
 252:Core/Src/dispcolor.c **** 			DrawPixel(ipart(intery), x, color, rfpart(intery));
 1635              		.loc 1 252 48 is_stmt 0 discriminator 3 view .LVU425
 1636 02a8 3FB2     		sxth	r7, r7
 1637              	.LVL187:
 1638              	.L85:
 252:Core/Src/dispcolor.c **** 			DrawPixel(ipart(intery), x, color, rfpart(intery));
 1639              		.loc 1 252 33 is_stmt 1 discriminator 1 view .LVU426
 1640 02aa B742     		cmp	r7, r6
 1641 02ac E0DB     		blt	.L86
 1642              	.LVL188:
 1643              	.L76:
 252:Core/Src/dispcolor.c **** 			DrawPixel(ipart(intery), x, color, rfpart(intery));
 1644              		.loc 1 252 33 is_stmt 0 discriminator 1 view .LVU427
 1645              	.LBE11:
 264:Core/Src/dispcolor.c **** 
 1646              		.loc 1 264 1 view .LVU428
 1647 02ae 02B0     		add	sp, sp, #8
 1648              		.cfi_remember_state
 1649              		.cfi_def_cfa_offset 56
 1650              		@ sp needed
 1651 02b0 BDEC068B 		vldm	sp!, {d8-d10}
 1652              		.cfi_restore 84
 1653              		.cfi_restore 85
 1654              		.cfi_restore 82
 1655              		.cfi_restore 83
 1656              		.cfi_restore 80
 1657              		.cfi_restore 81
 1658              		.cfi_def_cfa_offset 32
 1659              	.LVL189:
 264:Core/Src/dispcolor.c **** 
 1660              		.loc 1 264 1 view .LVU429
 1661 02b4 BDE8F087 		pop	{r4, r5, r6, r7, r8, r9, r10, pc}
 1662              	.LVL190:
 1663              	.L84:
 1664              		.cfi_restore_state
 258:Core/Src/dispcolor.c **** 			DrawPixel(x, ipart(intery), color, rfpart(intery));
 1665              		.loc 1 258 3 is_stmt 1 view .LVU430
 1666              	.LBB12:
 258:Core/Src/dispcolor.c **** 			DrawPixel(x, ipart(intery), color, rfpart(intery));
 1667              		.loc 1 258 8 view .LVU431
 258:Core/Src/dispcolor.c **** 			DrawPixel(x, ipart(intery), color, rfpart(intery));
 1668              		.loc 1 258 26 is_stmt 0 view .LVU432
 1669 02b8 0137     		adds	r7, r7, #1
 1670              	.LVL191:
 258:Core/Src/dispcolor.c **** 			DrawPixel(x, ipart(intery), color, rfpart(intery));
 1671              		.loc 1 258 16 view .LVU433
 1672 02ba 3FB2     		sxth	r7, r7
ARM GAS  C:\Users\kroko\AppData\Local\Temp\ccNEdXH2.s 			page 46


 1673              	.LVL192:
 258:Core/Src/dispcolor.c **** 			DrawPixel(x, ipart(intery), color, rfpart(intery));
 1674              		.loc 1 258 3 view .LVU434
 1675 02bc 1CE0     		b	.L88
 1676              	.LVL193:
 1677              	.L89:
 259:Core/Src/dispcolor.c **** 			DrawPixel(x, ipart(intery) + 1, color, fpart(intery));
 1678              		.loc 1 259 4 is_stmt 1 view .LVU435
 259:Core/Src/dispcolor.c **** 			DrawPixel(x, ipart(intery) + 1, color, fpart(intery));
 1679              		.loc 1 259 17 is_stmt 0 view .LVU436
 1680 02be B0EE480A 		vmov.f32	s0, s16
 1681 02c2 FFF7FEFF 		bl	ipart
 1682              	.LVL194:
 1683 02c6 0446     		mov	r4, r0
 259:Core/Src/dispcolor.c **** 			DrawPixel(x, ipart(intery) + 1, color, fpart(intery));
 1684              		.loc 1 259 4 discriminator 1 view .LVU437
 1685 02c8 B0EE480A 		vmov.f32	s0, s16
 1686 02cc FFF7FEFF 		bl	rfpart
 1687              	.LVL195:
 259:Core/Src/dispcolor.c **** 			DrawPixel(x, ipart(intery) + 1, color, fpart(intery));
 1688              		.loc 1 259 4 discriminator 2 view .LVU438
 1689 02d0 2A46     		mov	r2, r5
 1690 02d2 21B2     		sxth	r1, r4
 1691 02d4 3846     		mov	r0, r7
 1692 02d6 FFF7FEFF 		bl	DrawPixel
 1693              	.LVL196:
 260:Core/Src/dispcolor.c **** 			intery += gradient;
 1694              		.loc 1 260 4 is_stmt 1 view .LVU439
 260:Core/Src/dispcolor.c **** 			intery += gradient;
 1695              		.loc 1 260 31 is_stmt 0 discriminator 1 view .LVU440
 1696 02da 0134     		adds	r4, r4, #1
 1697 02dc A4B2     		uxth	r4, r4
 260:Core/Src/dispcolor.c **** 			intery += gradient;
 1698              		.loc 1 260 4 discriminator 1 view .LVU441
 1699 02de B0EE480A 		vmov.f32	s0, s16
 1700 02e2 FFF7FEFF 		bl	fpart
 1701              	.LVL197:
 260:Core/Src/dispcolor.c **** 			intery += gradient;
 1702              		.loc 1 260 4 discriminator 2 view .LVU442
 1703 02e6 2A46     		mov	r2, r5
 1704 02e8 21B2     		sxth	r1, r4
 1705 02ea 3846     		mov	r0, r7
 1706 02ec FFF7FEFF 		bl	DrawPixel
 1707              	.LVL198:
 261:Core/Src/dispcolor.c **** 		}
 1708              		.loc 1 261 4 is_stmt 1 view .LVU443
 261:Core/Src/dispcolor.c **** 		}
 1709              		.loc 1 261 11 is_stmt 0 view .LVU444
 1710 02f0 38EE098A 		vadd.f32	s16, s16, s18
 1711              	.LVL199:
 258:Core/Src/dispcolor.c **** 			DrawPixel(x, ipart(intery), color, rfpart(intery));
 1712              		.loc 1 258 48 is_stmt 1 discriminator 3 view .LVU445
 1713 02f4 0137     		adds	r7, r7, #1
 1714              	.LVL200:
 258:Core/Src/dispcolor.c **** 			DrawPixel(x, ipart(intery), color, rfpart(intery));
 1715              		.loc 1 258 48 is_stmt 0 discriminator 3 view .LVU446
 1716 02f6 3FB2     		sxth	r7, r7
ARM GAS  C:\Users\kroko\AppData\Local\Temp\ccNEdXH2.s 			page 47


 1717              	.LVL201:
 1718              	.L88:
 258:Core/Src/dispcolor.c **** 			DrawPixel(x, ipart(intery), color, rfpart(intery));
 1719              		.loc 1 258 33 is_stmt 1 discriminator 1 view .LVU447
 1720 02f8 B742     		cmp	r7, r6
 1721 02fa E0DB     		blt	.L89
 258:Core/Src/dispcolor.c **** 			DrawPixel(x, ipart(intery), color, rfpart(intery));
 1722              		.loc 1 258 33 is_stmt 0 discriminator 1 view .LVU448
 1723 02fc D7E7     		b	.L76
 1724              	.L95:
 1725 02fe 00BF     		.align	2
 1726              	.L94:
 1727 0300 0000E03F 		.word	1071644672
 1728              	.LBE12:
 1729              		.cfi_endproc
 1730              	.LFE20:
 1732              		.section	.text.dispcolor_DrawLine_Wu,"ax",%progbits
 1733              		.align	1
 1734              		.global	dispcolor_DrawLine_Wu
 1735              		.syntax unified
 1736              		.thumb
 1737              		.thumb_func
 1739              	dispcolor_DrawLine_Wu:
 1740              	.LVL202:
 1741              	.LFB21:
 267:Core/Src/dispcolor.c **** 	if (x1 == x2) {
 1742              		.loc 1 267 19 is_stmt 1 view -0
 1743              		.cfi_startproc
 1744              		@ args = 4, pretend = 0, frame = 0
 1745              		@ frame_needed = 0, uses_anonymous_args = 0
 267:Core/Src/dispcolor.c **** 	if (x1 == x2) {
 1746              		.loc 1 267 19 is_stmt 0 view .LVU450
 1747 0000 10B5     		push	{r4, lr}
 1748              		.cfi_def_cfa_offset 8
 1749              		.cfi_offset 4, -8
 1750              		.cfi_offset 14, -4
 1751 0002 82B0     		sub	sp, sp, #8
 1752              		.cfi_def_cfa_offset 16
 1753 0004 9E46     		mov	lr, r3
 1754 0006 BDF81040 		ldrh	r4, [sp, #16]
 268:Core/Src/dispcolor.c **** 		if (y1 > y2)
 1755              		.loc 1 268 2 is_stmt 1 view .LVU451
 268:Core/Src/dispcolor.c **** 		if (y1 > y2)
 1756              		.loc 1 268 5 is_stmt 0 view .LVU452
 1757 000a 9042     		cmp	r0, r2
 1758 000c 07D0     		beq	.L105
 1759 000e 9446     		mov	ip, r2
 276:Core/Src/dispcolor.c **** 		if (x1 > x2)
 1760              		.loc 1 276 2 is_stmt 1 view .LVU453
 276:Core/Src/dispcolor.c **** 		if (x1 > x2)
 1761              		.loc 1 276 5 is_stmt 0 view .LVU454
 1762 0010 9942     		cmp	r1, r3
 1763 0012 19D0     		beq	.L106
 284:Core/Src/dispcolor.c **** }
 1764              		.loc 1 284 2 is_stmt 1 view .LVU455
 1765 0014 0094     		str	r4, [sp]
 1766 0016 FFF7FEFF 		bl	DrawLine_Slow_Wu
ARM GAS  C:\Users\kroko\AppData\Local\Temp\ccNEdXH2.s 			page 48


 1767              	.LVL203:
 1768              	.L96:
 285:Core/Src/dispcolor.c **** 
 1769              		.loc 1 285 1 is_stmt 0 view .LVU456
 1770 001a 02B0     		add	sp, sp, #8
 1771              		.cfi_remember_state
 1772              		.cfi_def_cfa_offset 8
 1773              		@ sp needed
 1774 001c 10BD     		pop	{r4, pc}
 1775              	.LVL204:
 1776              	.L105:
 1777              		.cfi_restore_state
 269:Core/Src/dispcolor.c **** 			dispcolor_FillRect(x1, y2, 1, y1 - y2 + 1, color);
 1778              		.loc 1 269 3 is_stmt 1 view .LVU457
 269:Core/Src/dispcolor.c **** 			dispcolor_FillRect(x1, y2, 1, y1 - y2 + 1, color);
 1779              		.loc 1 269 6 is_stmt 0 view .LVU458
 1780 001e 9942     		cmp	r1, r3
 1781 0020 09DD     		ble	.L98
 270:Core/Src/dispcolor.c **** 		else
 1782              		.loc 1 270 4 is_stmt 1 view .LVU459
 270:Core/Src/dispcolor.c **** 		else
 1783              		.loc 1 270 37 is_stmt 0 view .LVU460
 1784 0022 CB1A     		subs	r3, r1, r3
 1785              	.LVL205:
 270:Core/Src/dispcolor.c **** 		else
 1786              		.loc 1 270 37 view .LVU461
 1787 0024 9BB2     		uxth	r3, r3
 270:Core/Src/dispcolor.c **** 		else
 1788              		.loc 1 270 42 view .LVU462
 1789 0026 0133     		adds	r3, r3, #1
 270:Core/Src/dispcolor.c **** 		else
 1790              		.loc 1 270 4 view .LVU463
 1791 0028 0094     		str	r4, [sp]
 1792 002a 1BB2     		sxth	r3, r3
 1793 002c 0122     		movs	r2, #1
 1794              	.LVL206:
 270:Core/Src/dispcolor.c **** 		else
 1795              		.loc 1 270 4 view .LVU464
 1796 002e 7146     		mov	r1, lr
 1797              	.LVL207:
 270:Core/Src/dispcolor.c **** 		else
 1798              		.loc 1 270 4 view .LVU465
 1799 0030 FFF7FEFF 		bl	dispcolor_FillRect
 1800              	.LVL208:
 270:Core/Src/dispcolor.c **** 		else
 1801              		.loc 1 270 4 view .LVU466
 1802 0034 F1E7     		b	.L96
 1803              	.LVL209:
 1804              	.L98:
 272:Core/Src/dispcolor.c **** 		return;
 1805              		.loc 1 272 4 is_stmt 1 view .LVU467
 272:Core/Src/dispcolor.c **** 		return;
 1806              		.loc 1 272 37 is_stmt 0 view .LVU468
 1807 0036 5B1A     		subs	r3, r3, r1
 1808              	.LVL210:
 272:Core/Src/dispcolor.c **** 		return;
 1809              		.loc 1 272 37 view .LVU469
ARM GAS  C:\Users\kroko\AppData\Local\Temp\ccNEdXH2.s 			page 49


 1810 0038 9BB2     		uxth	r3, r3
 272:Core/Src/dispcolor.c **** 		return;
 1811              		.loc 1 272 42 view .LVU470
 1812 003a 0133     		adds	r3, r3, #1
 272:Core/Src/dispcolor.c **** 		return;
 1813              		.loc 1 272 4 view .LVU471
 1814 003c 0094     		str	r4, [sp]
 1815 003e 1BB2     		sxth	r3, r3
 1816 0040 0122     		movs	r2, #1
 1817              	.LVL211:
 272:Core/Src/dispcolor.c **** 		return;
 1818              		.loc 1 272 4 view .LVU472
 1819 0042 FFF7FEFF 		bl	dispcolor_FillRect
 1820              	.LVL212:
 273:Core/Src/dispcolor.c **** 	}
 1821              		.loc 1 273 3 is_stmt 1 view .LVU473
 1822 0046 E8E7     		b	.L96
 1823              	.LVL213:
 1824              	.L106:
 277:Core/Src/dispcolor.c **** 			dispcolor_FillRect(x2, y1, x1 - x2 + 1, 1, color);
 1825              		.loc 1 277 3 view .LVU474
 277:Core/Src/dispcolor.c **** 			dispcolor_FillRect(x2, y1, x1 - x2 + 1, 1, color);
 1826              		.loc 1 277 6 is_stmt 0 view .LVU475
 1827 0048 9042     		cmp	r0, r2
 1828 004a 09DD     		ble	.L102
 278:Core/Src/dispcolor.c **** 		else
 1829              		.loc 1 278 4 is_stmt 1 view .LVU476
 278:Core/Src/dispcolor.c **** 		else
 1830              		.loc 1 278 34 is_stmt 0 view .LVU477
 1831 004c 821A     		subs	r2, r0, r2
 1832              	.LVL214:
 278:Core/Src/dispcolor.c **** 		else
 1833              		.loc 1 278 34 view .LVU478
 1834 004e 92B2     		uxth	r2, r2
 278:Core/Src/dispcolor.c **** 		else
 1835              		.loc 1 278 39 view .LVU479
 1836 0050 0132     		adds	r2, r2, #1
 278:Core/Src/dispcolor.c **** 		else
 1837              		.loc 1 278 4 view .LVU480
 1838 0052 0094     		str	r4, [sp]
 1839 0054 0123     		movs	r3, #1
 1840              	.LVL215:
 278:Core/Src/dispcolor.c **** 		else
 1841              		.loc 1 278 4 view .LVU481
 1842 0056 12B2     		sxth	r2, r2
 1843 0058 6046     		mov	r0, ip
 1844              	.LVL216:
 278:Core/Src/dispcolor.c **** 		else
 1845              		.loc 1 278 4 view .LVU482
 1846 005a FFF7FEFF 		bl	dispcolor_FillRect
 1847              	.LVL217:
 278:Core/Src/dispcolor.c **** 		else
 1848              		.loc 1 278 4 view .LVU483
 1849 005e DCE7     		b	.L96
 1850              	.LVL218:
 1851              	.L102:
 280:Core/Src/dispcolor.c **** 		return;
ARM GAS  C:\Users\kroko\AppData\Local\Temp\ccNEdXH2.s 			page 50


 1852              		.loc 1 280 4 is_stmt 1 view .LVU484
 280:Core/Src/dispcolor.c **** 		return;
 1853              		.loc 1 280 34 is_stmt 0 view .LVU485
 1854 0060 121A     		subs	r2, r2, r0
 1855              	.LVL219:
 280:Core/Src/dispcolor.c **** 		return;
 1856              		.loc 1 280 34 view .LVU486
 1857 0062 92B2     		uxth	r2, r2
 280:Core/Src/dispcolor.c **** 		return;
 1858              		.loc 1 280 39 view .LVU487
 1859 0064 0132     		adds	r2, r2, #1
 280:Core/Src/dispcolor.c **** 		return;
 1860              		.loc 1 280 4 view .LVU488
 1861 0066 0094     		str	r4, [sp]
 1862 0068 0123     		movs	r3, #1
 1863              	.LVL220:
 280:Core/Src/dispcolor.c **** 		return;
 1864              		.loc 1 280 4 view .LVU489
 1865 006a 12B2     		sxth	r2, r2
 1866 006c FFF7FEFF 		bl	dispcolor_FillRect
 1867              	.LVL221:
 281:Core/Src/dispcolor.c **** 	}
 1868              		.loc 1 281 3 is_stmt 1 view .LVU490
 1869 0070 D3E7     		b	.L96
 1870              		.cfi_endproc
 1871              	.LFE21:
 1873              		.section	.text.dispcolor_DrawRectangle,"ax",%progbits
 1874              		.align	1
 1875              		.global	dispcolor_DrawRectangle
 1876              		.syntax unified
 1877              		.thumb
 1878              		.thumb_func
 1880              	dispcolor_DrawRectangle:
 1881              	.LVL222:
 1882              	.LFB22:
 288:Core/Src/dispcolor.c **** 	dispcolor_DrawLine(x1, y1, x1, y2, color);
 1883              		.loc 1 288 19 view -0
 1884              		.cfi_startproc
 1885              		@ args = 4, pretend = 0, frame = 0
 1886              		@ frame_needed = 0, uses_anonymous_args = 0
 288:Core/Src/dispcolor.c **** 	dispcolor_DrawLine(x1, y1, x1, y2, color);
 1887              		.loc 1 288 19 is_stmt 0 view .LVU492
 1888 0000 2DE9F041 		push	{r4, r5, r6, r7, r8, lr}
 1889              		.cfi_def_cfa_offset 24
 1890              		.cfi_offset 4, -24
 1891              		.cfi_offset 5, -20
 1892              		.cfi_offset 6, -16
 1893              		.cfi_offset 7, -12
 1894              		.cfi_offset 8, -8
 1895              		.cfi_offset 14, -4
 1896 0004 82B0     		sub	sp, sp, #8
 1897              		.cfi_def_cfa_offset 32
 1898 0006 0546     		mov	r5, r0
 1899 0008 0F46     		mov	r7, r1
 1900 000a 1446     		mov	r4, r2
 1901 000c 1E46     		mov	r6, r3
 1902 000e BDF82080 		ldrh	r8, [sp, #32]
ARM GAS  C:\Users\kroko\AppData\Local\Temp\ccNEdXH2.s 			page 51


 289:Core/Src/dispcolor.c **** 	dispcolor_DrawLine(x2, y1, x2, y2, color);
 1903              		.loc 1 289 2 is_stmt 1 view .LVU493
 1904 0012 CDF80080 		str	r8, [sp]
 1905 0016 0246     		mov	r2, r0
 1906              	.LVL223:
 289:Core/Src/dispcolor.c **** 	dispcolor_DrawLine(x2, y1, x2, y2, color);
 1907              		.loc 1 289 2 is_stmt 0 view .LVU494
 1908 0018 FFF7FEFF 		bl	dispcolor_DrawLine
 1909              	.LVL224:
 290:Core/Src/dispcolor.c **** 	dispcolor_DrawLine(x1, y1, x2, y1, color);
 1910              		.loc 1 290 2 is_stmt 1 view .LVU495
 1911 001c CDF80080 		str	r8, [sp]
 1912 0020 3346     		mov	r3, r6
 1913 0022 2246     		mov	r2, r4
 1914 0024 3946     		mov	r1, r7
 1915 0026 2046     		mov	r0, r4
 1916 0028 FFF7FEFF 		bl	dispcolor_DrawLine
 1917              	.LVL225:
 291:Core/Src/dispcolor.c **** 	dispcolor_DrawLine(x1, y2, x2, y2, color);
 1918              		.loc 1 291 2 view .LVU496
 1919 002c CDF80080 		str	r8, [sp]
 1920 0030 3B46     		mov	r3, r7
 1921 0032 2246     		mov	r2, r4
 1922 0034 3946     		mov	r1, r7
 1923 0036 2846     		mov	r0, r5
 1924 0038 FFF7FEFF 		bl	dispcolor_DrawLine
 1925              	.LVL226:
 292:Core/Src/dispcolor.c **** }
 1926              		.loc 1 292 2 view .LVU497
 1927 003c CDF80080 		str	r8, [sp]
 1928 0040 3346     		mov	r3, r6
 1929 0042 2246     		mov	r2, r4
 1930 0044 3146     		mov	r1, r6
 1931 0046 2846     		mov	r0, r5
 1932 0048 FFF7FEFF 		bl	dispcolor_DrawLine
 1933              	.LVL227:
 293:Core/Src/dispcolor.c **** 
 1934              		.loc 1 293 1 is_stmt 0 view .LVU498
 1935 004c 02B0     		add	sp, sp, #8
 1936              		.cfi_def_cfa_offset 24
 1937              		@ sp needed
 1938 004e BDE8F081 		pop	{r4, r5, r6, r7, r8, pc}
 293:Core/Src/dispcolor.c **** 
 1939              		.loc 1 293 1 view .LVU499
 1940              		.cfi_endproc
 1941              	.LFE22:
 1943              		.section	.text.dispcolor_FillRectangle,"ax",%progbits
 1944              		.align	1
 1945              		.global	dispcolor_FillRectangle
 1946              		.syntax unified
 1947              		.thumb
 1948              		.thumb_func
 1950              	dispcolor_FillRectangle:
 1951              	.LVL228:
 1952              	.LFB23:
 296:Core/Src/dispcolor.c **** 	if (x1 > x2)
 1953              		.loc 1 296 23 is_stmt 1 view -0
ARM GAS  C:\Users\kroko\AppData\Local\Temp\ccNEdXH2.s 			page 52


 1954              		.cfi_startproc
 1955              		@ args = 4, pretend = 0, frame = 8
 1956              		@ frame_needed = 0, uses_anonymous_args = 0
 296:Core/Src/dispcolor.c **** 	if (x1 > x2)
 1957              		.loc 1 296 23 is_stmt 0 view .LVU501
 1958 0000 10B5     		push	{r4, lr}
 1959              		.cfi_def_cfa_offset 8
 1960              		.cfi_offset 4, -8
 1961              		.cfi_offset 14, -4
 1962 0002 84B0     		sub	sp, sp, #16
 1963              		.cfi_def_cfa_offset 24
 1964 0004 ADF80E00 		strh	r0, [sp, #14]	@ movhi
 1965 0008 ADF80C10 		strh	r1, [sp, #12]	@ movhi
 1966 000c ADF80A20 		strh	r2, [sp, #10]	@ movhi
 1967 0010 ADF80830 		strh	r3, [sp, #8]	@ movhi
 297:Core/Src/dispcolor.c **** 		SwapInt16Values(&x1, &x2);
 1968              		.loc 1 297 2 is_stmt 1 view .LVU502
 297:Core/Src/dispcolor.c **** 		SwapInt16Values(&x1, &x2);
 1969              		.loc 1 297 9 is_stmt 0 view .LVU503
 1970 0014 02B2     		sxth	r2, r0
 1971              	.LVL229:
 297:Core/Src/dispcolor.c **** 		SwapInt16Values(&x1, &x2);
 1972              		.loc 1 297 9 view .LVU504
 1973 0016 BDF90A30 		ldrsh	r3, [sp, #10]
 1974              	.LVL230:
 297:Core/Src/dispcolor.c **** 		SwapInt16Values(&x1, &x2);
 1975              		.loc 1 297 5 view .LVU505
 1976 001a 9A42     		cmp	r2, r3
 1977 001c 18DC     		bgt	.L113
 1978              	.LVL231:
 1979              	.L110:
 299:Core/Src/dispcolor.c **** 		SwapInt16Values(&y1, &y2);
 1980              		.loc 1 299 2 is_stmt 1 view .LVU506
 299:Core/Src/dispcolor.c **** 		SwapInt16Values(&y1, &y2);
 1981              		.loc 1 299 9 is_stmt 0 view .LVU507
 1982 001e BDF90C20 		ldrsh	r2, [sp, #12]
 1983 0022 BDF90830 		ldrsh	r3, [sp, #8]
 299:Core/Src/dispcolor.c **** 		SwapInt16Values(&y1, &y2);
 1984              		.loc 1 299 5 view .LVU508
 1985 0026 9A42     		cmp	r2, r3
 1986 0028 19DC     		bgt	.L114
 1987              	.L111:
 302:Core/Src/dispcolor.c **** }
 1988              		.loc 1 302 2 is_stmt 1 view .LVU509
 1989 002a BDF90E00 		ldrsh	r0, [sp, #14]
 1990 002e BDF90C10 		ldrsh	r1, [sp, #12]
 302:Core/Src/dispcolor.c **** }
 1991              		.loc 1 302 32 is_stmt 0 view .LVU510
 1992 0032 BDF80A20 		ldrh	r2, [sp, #10]
 1993 0036 121A     		subs	r2, r2, r0
 302:Core/Src/dispcolor.c **** }
 1994              		.loc 1 302 41 view .LVU511
 1995 0038 BDF80830 		ldrh	r3, [sp, #8]
 1996 003c 5B1A     		subs	r3, r3, r1
 302:Core/Src/dispcolor.c **** }
 1997              		.loc 1 302 2 view .LVU512
 1998 003e BDF81840 		ldrh	r4, [sp, #24]
ARM GAS  C:\Users\kroko\AppData\Local\Temp\ccNEdXH2.s 			page 53


 1999 0042 0094     		str	r4, [sp]
 2000 0044 1BB2     		sxth	r3, r3
 2001 0046 12B2     		sxth	r2, r2
 2002 0048 FFF7FEFF 		bl	dispcolor_FillRect
 2003              	.LVL232:
 303:Core/Src/dispcolor.c **** 
 2004              		.loc 1 303 1 view .LVU513
 2005 004c 04B0     		add	sp, sp, #16
 2006              		.cfi_remember_state
 2007              		.cfi_def_cfa_offset 8
 2008              		@ sp needed
 2009 004e 10BD     		pop	{r4, pc}
 2010              	.LVL233:
 2011              	.L113:
 2012              		.cfi_restore_state
 298:Core/Src/dispcolor.c **** 	if (y1 > y2)
 2013              		.loc 1 298 3 is_stmt 1 view .LVU514
 2014 0050 0DF10A01 		add	r1, sp, #10
 2015              	.LVL234:
 298:Core/Src/dispcolor.c **** 	if (y1 > y2)
 2016              		.loc 1 298 3 is_stmt 0 view .LVU515
 2017 0054 0DF10E00 		add	r0, sp, #14
 2018              	.LVL235:
 298:Core/Src/dispcolor.c **** 	if (y1 > y2)
 2019              		.loc 1 298 3 view .LVU516
 2020 0058 FFF7FEFF 		bl	SwapInt16Values
 2021              	.LVL236:
 298:Core/Src/dispcolor.c **** 	if (y1 > y2)
 2022              		.loc 1 298 3 view .LVU517
 2023 005c DFE7     		b	.L110
 2024              	.L114:
 300:Core/Src/dispcolor.c **** 
 2025              		.loc 1 300 3 is_stmt 1 view .LVU518
 2026 005e 02A9     		add	r1, sp, #8
 2027 0060 03A8     		add	r0, sp, #12
 2028 0062 FFF7FEFF 		bl	SwapInt16Values
 2029              	.LVL237:
 2030 0066 E0E7     		b	.L111
 2031              		.cfi_endproc
 2032              	.LFE23:
 2034              		.section	.text.dispcolor_DrawTriangle,"ax",%progbits
 2035              		.align	1
 2036              		.global	dispcolor_DrawTriangle
 2037              		.syntax unified
 2038              		.thumb
 2039              		.thumb_func
 2041              	dispcolor_DrawTriangle:
 2042              	.LVL238:
 2043              	.LFB24:
 306:Core/Src/dispcolor.c **** 	dispcolor_DrawLine(x0, y0, x1, y1, color);
 2044              		.loc 1 306 43 view -0
 2045              		.cfi_startproc
 2046              		@ args = 12, pretend = 0, frame = 0
 2047              		@ frame_needed = 0, uses_anonymous_args = 0
 306:Core/Src/dispcolor.c **** 	dispcolor_DrawLine(x0, y0, x1, y1, color);
 2048              		.loc 1 306 43 is_stmt 0 view .LVU520
 2049 0000 2DE9F047 		push	{r4, r5, r6, r7, r8, r9, r10, lr}
ARM GAS  C:\Users\kroko\AppData\Local\Temp\ccNEdXH2.s 			page 54


 2050              		.cfi_def_cfa_offset 32
 2051              		.cfi_offset 4, -32
 2052              		.cfi_offset 5, -28
 2053              		.cfi_offset 6, -24
 2054              		.cfi_offset 7, -20
 2055              		.cfi_offset 8, -16
 2056              		.cfi_offset 9, -12
 2057              		.cfi_offset 10, -8
 2058              		.cfi_offset 14, -4
 2059 0004 82B0     		sub	sp, sp, #8
 2060              		.cfi_def_cfa_offset 40
 2061 0006 0446     		mov	r4, r0
 2062 0008 0D46     		mov	r5, r1
 2063 000a 1746     		mov	r7, r2
 2064 000c 9846     		mov	r8, r3
 2065 000e BDF92890 		ldrsh	r9, [sp, #40]
 2066 0012 BDF92CA0 		ldrsh	r10, [sp, #44]
 2067 0016 BDF83060 		ldrh	r6, [sp, #48]
 307:Core/Src/dispcolor.c **** 	dispcolor_DrawLine(x1, y1, x2, y2, color);
 2068              		.loc 1 307 2 is_stmt 1 view .LVU521
 2069 001a 0096     		str	r6, [sp]
 2070 001c FFF7FEFF 		bl	dispcolor_DrawLine
 2071              	.LVL239:
 308:Core/Src/dispcolor.c **** 	dispcolor_DrawLine(x2, y2, x0, y0, color);
 2072              		.loc 1 308 2 view .LVU522
 2073 0020 0096     		str	r6, [sp]
 2074 0022 5346     		mov	r3, r10
 2075 0024 4A46     		mov	r2, r9
 2076 0026 4146     		mov	r1, r8
 2077 0028 3846     		mov	r0, r7
 2078 002a FFF7FEFF 		bl	dispcolor_DrawLine
 2079              	.LVL240:
 309:Core/Src/dispcolor.c **** }
 2080              		.loc 1 309 2 view .LVU523
 2081 002e 0096     		str	r6, [sp]
 2082 0030 2B46     		mov	r3, r5
 2083 0032 2246     		mov	r2, r4
 2084 0034 5146     		mov	r1, r10
 2085 0036 4846     		mov	r0, r9
 2086 0038 FFF7FEFF 		bl	dispcolor_DrawLine
 2087              	.LVL241:
 310:Core/Src/dispcolor.c **** 
 2088              		.loc 1 310 1 is_stmt 0 view .LVU524
 2089 003c 02B0     		add	sp, sp, #8
 2090              		.cfi_def_cfa_offset 32
 2091              		@ sp needed
 2092 003e BDE8F087 		pop	{r4, r5, r6, r7, r8, r9, r10, pc}
 310:Core/Src/dispcolor.c **** 
 2093              		.loc 1 310 1 view .LVU525
 2094              		.cfi_endproc
 2095              	.LFE24:
 2097              		.section	.text.dispcolor_DrawTriangle_Wu,"ax",%progbits
 2098              		.align	1
 2099              		.global	dispcolor_DrawTriangle_Wu
 2100              		.syntax unified
 2101              		.thumb
 2102              		.thumb_func
ARM GAS  C:\Users\kroko\AppData\Local\Temp\ccNEdXH2.s 			page 55


 2104              	dispcolor_DrawTriangle_Wu:
 2105              	.LVL242:
 2106              	.LFB25:
 313:Core/Src/dispcolor.c **** 	dispcolor_DrawLine_Wu(x0, y0, x1, y1, color);
 2107              		.loc 1 313 43 is_stmt 1 view -0
 2108              		.cfi_startproc
 2109              		@ args = 12, pretend = 0, frame = 0
 2110              		@ frame_needed = 0, uses_anonymous_args = 0
 313:Core/Src/dispcolor.c **** 	dispcolor_DrawLine_Wu(x0, y0, x1, y1, color);
 2111              		.loc 1 313 43 is_stmt 0 view .LVU527
 2112 0000 2DE9F047 		push	{r4, r5, r6, r7, r8, r9, r10, lr}
 2113              		.cfi_def_cfa_offset 32
 2114              		.cfi_offset 4, -32
 2115              		.cfi_offset 5, -28
 2116              		.cfi_offset 6, -24
 2117              		.cfi_offset 7, -20
 2118              		.cfi_offset 8, -16
 2119              		.cfi_offset 9, -12
 2120              		.cfi_offset 10, -8
 2121              		.cfi_offset 14, -4
 2122 0004 82B0     		sub	sp, sp, #8
 2123              		.cfi_def_cfa_offset 40
 2124 0006 0446     		mov	r4, r0
 2125 0008 0D46     		mov	r5, r1
 2126 000a 1746     		mov	r7, r2
 2127 000c 9846     		mov	r8, r3
 2128 000e BDF92890 		ldrsh	r9, [sp, #40]
 2129 0012 BDF92CA0 		ldrsh	r10, [sp, #44]
 2130 0016 BDF83060 		ldrh	r6, [sp, #48]
 314:Core/Src/dispcolor.c **** 	dispcolor_DrawLine_Wu(x1, y1, x2, y2, color);
 2131              		.loc 1 314 2 is_stmt 1 view .LVU528
 2132 001a 0096     		str	r6, [sp]
 2133 001c FFF7FEFF 		bl	dispcolor_DrawLine_Wu
 2134              	.LVL243:
 315:Core/Src/dispcolor.c **** 	dispcolor_DrawLine_Wu(x2, y2, x0, y0, color);
 2135              		.loc 1 315 2 view .LVU529
 2136 0020 0096     		str	r6, [sp]
 2137 0022 5346     		mov	r3, r10
 2138 0024 4A46     		mov	r2, r9
 2139 0026 4146     		mov	r1, r8
 2140 0028 3846     		mov	r0, r7
 2141 002a FFF7FEFF 		bl	dispcolor_DrawLine_Wu
 2142              	.LVL244:
 316:Core/Src/dispcolor.c **** }
 2143              		.loc 1 316 2 view .LVU530
 2144 002e 0096     		str	r6, [sp]
 2145 0030 2B46     		mov	r3, r5
 2146 0032 2246     		mov	r2, r4
 2147 0034 5146     		mov	r1, r10
 2148 0036 4846     		mov	r0, r9
 2149 0038 FFF7FEFF 		bl	dispcolor_DrawLine_Wu
 2150              	.LVL245:
 317:Core/Src/dispcolor.c **** 
 2151              		.loc 1 317 1 is_stmt 0 view .LVU531
 2152 003c 02B0     		add	sp, sp, #8
 2153              		.cfi_def_cfa_offset 32
 2154              		@ sp needed
ARM GAS  C:\Users\kroko\AppData\Local\Temp\ccNEdXH2.s 			page 56


 2155 003e BDE8F087 		pop	{r4, r5, r6, r7, r8, r9, r10, pc}
 317:Core/Src/dispcolor.c **** 
 2156              		.loc 1 317 1 view .LVU532
 2157              		.cfi_endproc
 2158              	.LFE25:
 2160              		.section	.text.dispcolor_FillTriangle,"ax",%progbits
 2161              		.align	1
 2162              		.global	dispcolor_FillTriangle
 2163              		.syntax unified
 2164              		.thumb
 2165              		.thumb_func
 2167              	dispcolor_FillTriangle:
 2168              	.LVL246:
 2169              	.LFB26:
 320:Core/Src/dispcolor.c **** 	int16_t a, b, y, last;
 2170              		.loc 1 320 43 is_stmt 1 view -0
 2171              		.cfi_startproc
 2172              		@ args = 12, pretend = 0, frame = 32
 2173              		@ frame_needed = 0, uses_anonymous_args = 0
 320:Core/Src/dispcolor.c **** 	int16_t a, b, y, last;
 2174              		.loc 1 320 43 is_stmt 0 view .LVU534
 2175 0000 2DE9F04F 		push	{r4, r5, r6, r7, r8, r9, r10, fp, lr}
 2176              		.cfi_def_cfa_offset 36
 2177              		.cfi_offset 4, -36
 2178              		.cfi_offset 5, -32
 2179              		.cfi_offset 6, -28
 2180              		.cfi_offset 7, -24
 2181              		.cfi_offset 8, -20
 2182              		.cfi_offset 9, -16
 2183              		.cfi_offset 10, -12
 2184              		.cfi_offset 11, -8
 2185              		.cfi_offset 14, -4
 2186 0004 8BB0     		sub	sp, sp, #44
 2187              		.cfi_def_cfa_offset 80
 2188 0006 BDF85890 		ldrh	r9, [sp, #88]
 2189 000a ADF81E00 		strh	r0, [sp, #30]	@ movhi
 2190 000e ADF81C10 		strh	r1, [sp, #28]	@ movhi
 2191 0012 ADF81A20 		strh	r2, [sp, #26]	@ movhi
 2192 0016 ADF81830 		strh	r3, [sp, #24]	@ movhi
 321:Core/Src/dispcolor.c **** 
 2193              		.loc 1 321 2 is_stmt 1 view .LVU535
 324:Core/Src/dispcolor.c **** 		SwapInt16Values(&y0, &y1);
 2194              		.loc 1 324 2 view .LVU536
 324:Core/Src/dispcolor.c **** 		SwapInt16Values(&y0, &y1);
 2195              		.loc 1 324 9 is_stmt 0 view .LVU537
 2196 001a 0AB2     		sxth	r2, r1
 2197              	.LVL247:
 324:Core/Src/dispcolor.c **** 		SwapInt16Values(&y0, &y1);
 2198              		.loc 1 324 9 view .LVU538
 2199 001c 1BB2     		sxth	r3, r3
 2200              	.LVL248:
 324:Core/Src/dispcolor.c **** 		SwapInt16Values(&y0, &y1);
 2201              		.loc 1 324 5 view .LVU539
 2202 001e 9A42     		cmp	r2, r3
 2203 0020 3CDC     		bgt	.L137
 2204              	.LVL249:
 2205              	.L120:
ARM GAS  C:\Users\kroko\AppData\Local\Temp\ccNEdXH2.s 			page 57


 328:Core/Src/dispcolor.c **** 		SwapInt16Values(&y2, &y1);
 2206              		.loc 1 328 2 is_stmt 1 view .LVU540
 328:Core/Src/dispcolor.c **** 		SwapInt16Values(&y2, &y1);
 2207              		.loc 1 328 9 is_stmt 0 view .LVU541
 2208 0022 BDF91820 		ldrsh	r2, [sp, #24]
 2209 0026 BDF95430 		ldrsh	r3, [sp, #84]
 328:Core/Src/dispcolor.c **** 		SwapInt16Values(&y2, &y1);
 2210              		.loc 1 328 5 view .LVU542
 2211 002a 9A42     		cmp	r2, r3
 2212 002c 41DC     		bgt	.L138
 2213              	.L121:
 332:Core/Src/dispcolor.c **** 		SwapInt16Values(&y0, &y1);
 2214              		.loc 1 332 2 is_stmt 1 view .LVU543
 332:Core/Src/dispcolor.c **** 		SwapInt16Values(&y0, &y1);
 2215              		.loc 1 332 9 is_stmt 0 view .LVU544
 2216 002e BDF91C20 		ldrsh	r2, [sp, #28]
 2217 0032 BDF91830 		ldrsh	r3, [sp, #24]
 332:Core/Src/dispcolor.c **** 		SwapInt16Values(&y0, &y1);
 2218              		.loc 1 332 5 view .LVU545
 2219 0036 9A42     		cmp	r2, r3
 2220 0038 45DC     		bgt	.L139
 2221              	.L122:
 337:Core/Src/dispcolor.c **** 			{
 2222              		.loc 1 337 2 is_stmt 1 view .LVU546
 337:Core/Src/dispcolor.c **** 			{
 2223              		.loc 1 337 9 is_stmt 0 view .LVU547
 2224 003a BDF91C40 		ldrsh	r4, [sp, #28]
 2225 003e BDF95400 		ldrsh	r0, [sp, #84]
 337:Core/Src/dispcolor.c **** 			{
 2226              		.loc 1 337 5 view .LVU548
 2227 0042 8442     		cmp	r4, r0
 2228 0044 4AD0     		beq	.L140
 353:Core/Src/dispcolor.c **** 			dx12 = x2 - x1, dy12 = y2 - y1;
 2229              		.loc 1 353 2 is_stmt 1 view .LVU549
 353:Core/Src/dispcolor.c **** 			dx12 = x2 - x1, dy12 = y2 - y1;
 2230              		.loc 1 353 20 is_stmt 0 view .LVU550
 2231 0046 BDF81A50 		ldrh	r5, [sp, #26]
 2232 004a BDF81E70 		ldrh	r7, [sp, #30]
 2233 004e EB1B     		subs	r3, r5, r7
 353:Core/Src/dispcolor.c **** 			dx12 = x2 - x1, dy12 = y2 - y1;
 2234              		.loc 1 353 10 view .LVU551
 2235 0050 1BB2     		sxth	r3, r3
 2236 0052 0393     		str	r3, [sp, #12]
 2237              	.LVL250:
 353:Core/Src/dispcolor.c **** 			dx12 = x2 - x1, dy12 = y2 - y1;
 2238              		.loc 1 353 36 view .LVU552
 2239 0054 BDF91830 		ldrsh	r3, [sp, #24]
 2240 0058 99B2     		uxth	r1, r3
 2241 005a 1FFA84F8 		uxth	r8, r4
 2242 005e A1EB080B 		sub	fp, r1, r8
 353:Core/Src/dispcolor.c **** 			dx12 = x2 - x1, dy12 = y2 - y1;
 2243              		.loc 1 353 26 view .LVU553
 2244 0062 0FFA8BFB 		sxth	fp, fp
 2245              	.LVL251:
 353:Core/Src/dispcolor.c **** 			dx12 = x2 - x1, dy12 = y2 - y1;
 2246              		.loc 1 353 52 view .LVU554
 2247 0066 BDF850A0 		ldrh	r10, [sp, #80]
ARM GAS  C:\Users\kroko\AppData\Local\Temp\ccNEdXH2.s 			page 58


 2248 006a AAEB0707 		sub	r7, r10, r7
 353:Core/Src/dispcolor.c **** 			dx12 = x2 - x1, dy12 = y2 - y1;
 2249              		.loc 1 353 42 view .LVU555
 2250 006e 3FB2     		sxth	r7, r7
 2251              	.LVL252:
 353:Core/Src/dispcolor.c **** 			dx12 = x2 - x1, dy12 = y2 - y1;
 2252              		.loc 1 353 68 view .LVU556
 2253 0070 82B2     		uxth	r2, r0
 2254 0072 A2EB0808 		sub	r8, r2, r8
 353:Core/Src/dispcolor.c **** 			dx12 = x2 - x1, dy12 = y2 - y1;
 2255              		.loc 1 353 58 view .LVU557
 2256 0076 0FFA88F8 		sxth	r8, r8
 2257              	.LVL253:
 354:Core/Src/dispcolor.c **** 	int32_t sa = 0, sb = 0;
 2258              		.loc 1 354 14 view .LVU558
 2259 007a AAEB050A 		sub	r10, r10, r5
 354:Core/Src/dispcolor.c **** 	int32_t sa = 0, sb = 0;
 2260              		.loc 1 354 4 view .LVU559
 2261 007e 0FFA8AFA 		sxth	r10, r10
 2262              	.LVL254:
 354:Core/Src/dispcolor.c **** 	int32_t sa = 0, sb = 0;
 2263              		.loc 1 354 30 view .LVU560
 2264 0082 521A     		subs	r2, r2, r1
 354:Core/Src/dispcolor.c **** 	int32_t sa = 0, sb = 0;
 2265              		.loc 1 354 20 view .LVU561
 2266 0084 12B2     		sxth	r2, r2
 2267 0086 0492     		str	r2, [sp, #16]
 2268              	.LVL255:
 355:Core/Src/dispcolor.c **** 
 2269              		.loc 1 355 2 is_stmt 1 view .LVU562
 363:Core/Src/dispcolor.c **** 		last = y1; // Include y1 scanline
 2270              		.loc 1 363 2 view .LVU563
 363:Core/Src/dispcolor.c **** 		last = y1; // Include y1 scanline
 2271              		.loc 1 363 5 is_stmt 0 view .LVU564
 2272 0088 9842     		cmp	r0, r3
 2273 008a 01D0     		beq	.L129
 366:Core/Src/dispcolor.c **** 
 2274              		.loc 1 366 3 is_stmt 1 view .LVU565
 366:Core/Src/dispcolor.c **** 
 2275              		.loc 1 366 13 is_stmt 0 view .LVU566
 2276 008c 0139     		subs	r1, r1, #1
 366:Core/Src/dispcolor.c **** 
 2277              		.loc 1 366 8 view .LVU567
 2278 008e 0BB2     		sxth	r3, r1
 2279              	.LVL256:
 2280              	.L129:
 368:Core/Src/dispcolor.c **** 		a = x0 + sa / dy01;
 2281              		.loc 1 368 2 is_stmt 1 view .LVU568
 355:Core/Src/dispcolor.c **** 
 2282              		.loc 1 355 18 is_stmt 0 view .LVU569
 2283 0090 0025     		movs	r5, #0
 355:Core/Src/dispcolor.c **** 
 2284              		.loc 1 355 10 view .LVU570
 2285 0092 2E46     		mov	r6, r5
 2286 0094 CDF814A0 		str	r10, [sp, #20]
 2287 0098 9A46     		mov	r10, r3
 2288              	.LVL257:
ARM GAS  C:\Users\kroko\AppData\Local\Temp\ccNEdXH2.s 			page 59


 368:Core/Src/dispcolor.c **** 		a = x0 + sa / dy01;
 2289              		.loc 1 368 2 view .LVU571
 2290 009a 60E0     		b	.L130
 2291              	.LVL258:
 2292              	.L137:
 325:Core/Src/dispcolor.c **** 		SwapInt16Values(&x0, &x1);
 2293              		.loc 1 325 3 is_stmt 1 view .LVU572
 2294 009c 06A9     		add	r1, sp, #24
 2295              	.LVL259:
 325:Core/Src/dispcolor.c **** 		SwapInt16Values(&x0, &x1);
 2296              		.loc 1 325 3 is_stmt 0 view .LVU573
 2297 009e 07A8     		add	r0, sp, #28
 2298              	.LVL260:
 325:Core/Src/dispcolor.c **** 		SwapInt16Values(&x0, &x1);
 2299              		.loc 1 325 3 view .LVU574
 2300 00a0 FFF7FEFF 		bl	SwapInt16Values
 2301              	.LVL261:
 326:Core/Src/dispcolor.c **** 	}
 2302              		.loc 1 326 3 is_stmt 1 view .LVU575
 2303 00a4 0DF11A01 		add	r1, sp, #26
 2304 00a8 0DF11E00 		add	r0, sp, #30
 2305 00ac FFF7FEFF 		bl	SwapInt16Values
 2306              	.LVL262:
 2307 00b0 B7E7     		b	.L120
 2308              	.L138:
 329:Core/Src/dispcolor.c **** 		SwapInt16Values(&x2, &x1);
 2309              		.loc 1 329 3 view .LVU576
 2310 00b2 06A9     		add	r1, sp, #24
 2311 00b4 15A8     		add	r0, sp, #84
 2312 00b6 FFF7FEFF 		bl	SwapInt16Values
 2313              	.LVL263:
 330:Core/Src/dispcolor.c **** 	}
 2314              		.loc 1 330 3 view .LVU577
 2315 00ba 0DF11A01 		add	r1, sp, #26
 2316 00be 14A8     		add	r0, sp, #80
 2317              	.LVL264:
 330:Core/Src/dispcolor.c **** 	}
 2318              		.loc 1 330 3 is_stmt 0 view .LVU578
 2319 00c0 FFF7FEFF 		bl	SwapInt16Values
 2320              	.LVL265:
 330:Core/Src/dispcolor.c **** 	}
 2321              		.loc 1 330 3 view .LVU579
 2322 00c4 B3E7     		b	.L121
 2323              	.L139:
 333:Core/Src/dispcolor.c **** 		SwapInt16Values(&x0, &x1);
 2324              		.loc 1 333 3 is_stmt 1 view .LVU580
 2325 00c6 06A9     		add	r1, sp, #24
 2326 00c8 07A8     		add	r0, sp, #28
 2327 00ca FFF7FEFF 		bl	SwapInt16Values
 2328              	.LVL266:
 334:Core/Src/dispcolor.c **** 	}
 2329              		.loc 1 334 3 view .LVU581
 2330 00ce 0DF11A01 		add	r1, sp, #26
 2331 00d2 0DF11E00 		add	r0, sp, #30
 2332 00d6 FFF7FEFF 		bl	SwapInt16Values
 2333              	.LVL267:
 2334 00da AEE7     		b	.L122
ARM GAS  C:\Users\kroko\AppData\Local\Temp\ccNEdXH2.s 			page 60


 2335              	.L140:
 339:Core/Src/dispcolor.c **** 		if (x1 < a)
 2336              		.loc 1 339 3 view .LVU582
 339:Core/Src/dispcolor.c **** 		if (x1 < a)
 2337              		.loc 1 339 9 is_stmt 0 view .LVU583
 2338 00dc BDF91E30 		ldrsh	r3, [sp, #30]
 2339 00e0 ADF82430 		strh	r3, [sp, #36]	@ movhi
 339:Core/Src/dispcolor.c **** 		if (x1 < a)
 2340              		.loc 1 339 5 view .LVU584
 2341 00e4 ADF82630 		strh	r3, [sp, #38]	@ movhi
 340:Core/Src/dispcolor.c **** 			a = x1;
 2342              		.loc 1 340 3 is_stmt 1 view .LVU585
 340:Core/Src/dispcolor.c **** 			a = x1;
 2343              		.loc 1 340 10 is_stmt 0 view .LVU586
 2344 00e8 BDF91A20 		ldrsh	r2, [sp, #26]
 340:Core/Src/dispcolor.c **** 			a = x1;
 2345              		.loc 1 340 6 view .LVU587
 2346 00ec 9342     		cmp	r3, r2
 2347 00ee 1ADD     		ble	.L124
 341:Core/Src/dispcolor.c **** 		else if (x1 > b)
 2348              		.loc 1 341 4 is_stmt 1 view .LVU588
 341:Core/Src/dispcolor.c **** 		else if (x1 > b)
 2349              		.loc 1 341 6 is_stmt 0 view .LVU589
 2350 00f0 ADF82620 		strh	r2, [sp, #38]	@ movhi
 2351              	.L125:
 344:Core/Src/dispcolor.c **** 			a = x2;
 2352              		.loc 1 344 3 is_stmt 1 view .LVU590
 344:Core/Src/dispcolor.c **** 			a = x2;
 2353              		.loc 1 344 10 is_stmt 0 view .LVU591
 2354 00f4 BDF95030 		ldrsh	r3, [sp, #80]
 2355 00f8 BDF92620 		ldrsh	r2, [sp, #38]
 344:Core/Src/dispcolor.c **** 			a = x2;
 2356              		.loc 1 344 6 view .LVU592
 2357 00fc 9342     		cmp	r3, r2
 2358 00fe 17DA     		bge	.L126
 345:Core/Src/dispcolor.c **** 		else if (x2 > b)
 2359              		.loc 1 345 4 is_stmt 1 view .LVU593
 345:Core/Src/dispcolor.c **** 		else if (x2 > b)
 2360              		.loc 1 345 6 is_stmt 0 view .LVU594
 2361 0100 ADF82630 		strh	r3, [sp, #38]	@ movhi
 2362              	.L127:
 349:Core/Src/dispcolor.c **** 		return;
 2363              		.loc 1 349 3 is_stmt 1 view .LVU595
 2364 0104 BDF92600 		ldrsh	r0, [sp, #38]
 349:Core/Src/dispcolor.c **** 		return;
 2365              		.loc 1 349 31 is_stmt 0 view .LVU596
 2366 0108 BDF82420 		ldrh	r2, [sp, #36]
 2367 010c 121A     		subs	r2, r2, r0
 2368 010e 92B2     		uxth	r2, r2
 349:Core/Src/dispcolor.c **** 		return;
 2369              		.loc 1 349 35 view .LVU597
 2370 0110 0132     		adds	r2, r2, #1
 349:Core/Src/dispcolor.c **** 		return;
 2371              		.loc 1 349 3 view .LVU598
 2372 0112 CDF80090 		str	r9, [sp]
 2373 0116 0123     		movs	r3, #1
 2374 0118 12B2     		sxth	r2, r2
ARM GAS  C:\Users\kroko\AppData\Local\Temp\ccNEdXH2.s 			page 61


 2375 011a 2146     		mov	r1, r4
 2376 011c FFF7FEFF 		bl	dispcolor_FillRect
 2377              	.LVL268:
 350:Core/Src/dispcolor.c **** 	}
 2378              		.loc 1 350 3 is_stmt 1 view .LVU599
 2379              	.L119:
 394:Core/Src/dispcolor.c **** 
 2380              		.loc 1 394 1 is_stmt 0 view .LVU600
 2381 0120 0BB0     		add	sp, sp, #44
 2382              		.cfi_remember_state
 2383              		.cfi_def_cfa_offset 36
 2384              		@ sp needed
 2385 0122 BDE8F08F 		pop	{r4, r5, r6, r7, r8, r9, r10, fp, pc}
 2386              	.LVL269:
 2387              	.L124:
 2388              		.cfi_restore_state
 342:Core/Src/dispcolor.c **** 			b = x1;
 2389              		.loc 1 342 8 is_stmt 1 view .LVU601
 342:Core/Src/dispcolor.c **** 			b = x1;
 2390              		.loc 1 342 11 is_stmt 0 view .LVU602
 2391 0126 9342     		cmp	r3, r2
 2392 0128 E4DA     		bge	.L125
 343:Core/Src/dispcolor.c **** 		if (x2 < a)
 2393              		.loc 1 343 4 is_stmt 1 view .LVU603
 343:Core/Src/dispcolor.c **** 		if (x2 < a)
 2394              		.loc 1 343 6 is_stmt 0 view .LVU604
 2395 012a ADF82420 		strh	r2, [sp, #36]	@ movhi
 2396 012e E1E7     		b	.L125
 2397              	.L126:
 346:Core/Src/dispcolor.c **** 			b = x2;
 2398              		.loc 1 346 8 is_stmt 1 view .LVU605
 346:Core/Src/dispcolor.c **** 			b = x2;
 2399              		.loc 1 346 15 is_stmt 0 view .LVU606
 2400 0130 BDF92420 		ldrsh	r2, [sp, #36]
 346:Core/Src/dispcolor.c **** 			b = x2;
 2401              		.loc 1 346 11 view .LVU607
 2402 0134 9342     		cmp	r3, r2
 2403 0136 E5DD     		ble	.L127
 347:Core/Src/dispcolor.c **** 
 2404              		.loc 1 347 4 is_stmt 1 view .LVU608
 347:Core/Src/dispcolor.c **** 
 2405              		.loc 1 347 6 is_stmt 0 view .LVU609
 2406 0138 ADF82430 		strh	r3, [sp, #36]	@ movhi
 2407 013c E2E7     		b	.L127
 2408              	.LVL270:
 2409              	.L131:
 377:Core/Src/dispcolor.c **** 	}
 2410              		.loc 1 377 3 is_stmt 1 view .LVU610
 2411 013e BDF92600 		ldrsh	r0, [sp, #38]
 377:Core/Src/dispcolor.c **** 	}
 2412              		.loc 1 377 30 is_stmt 0 view .LVU611
 2413 0142 BDF82420 		ldrh	r2, [sp, #36]
 2414 0146 121A     		subs	r2, r2, r0
 2415 0148 92B2     		uxth	r2, r2
 377:Core/Src/dispcolor.c **** 	}
 2416              		.loc 1 377 34 view .LVU612
 2417 014a 0132     		adds	r2, r2, #1
ARM GAS  C:\Users\kroko\AppData\Local\Temp\ccNEdXH2.s 			page 62


 377:Core/Src/dispcolor.c **** 	}
 2418              		.loc 1 377 3 view .LVU613
 2419 014c CDF80090 		str	r9, [sp]
 2420 0150 0123     		movs	r3, #1
 2421 0152 12B2     		sxth	r2, r2
 2422 0154 2146     		mov	r1, r4
 2423 0156 FFF7FEFF 		bl	dispcolor_FillRect
 2424              	.LVL271:
 368:Core/Src/dispcolor.c **** 		a = x0 + sa / dy01;
 2425              		.loc 1 368 27 is_stmt 1 discriminator 2 view .LVU614
 2426 015a 0134     		adds	r4, r4, #1
 2427              	.LVL272:
 368:Core/Src/dispcolor.c **** 		a = x0 + sa / dy01;
 2428              		.loc 1 368 27 is_stmt 0 discriminator 2 view .LVU615
 2429 015c 24B2     		sxth	r4, r4
 2430              	.LVL273:
 2431              	.L130:
 368:Core/Src/dispcolor.c **** 		a = x0 + sa / dy01;
 2432              		.loc 1 368 17 is_stmt 1 discriminator 1 view .LVU616
 2433 015e 5445     		cmp	r4, r10
 2434 0160 18DC     		bgt	.L141
 369:Core/Src/dispcolor.c **** 		b = x0 + sb / dy02;
 2435              		.loc 1 369 3 view .LVU617
 369:Core/Src/dispcolor.c **** 		b = x0 + sb / dy02;
 2436              		.loc 1 369 15 is_stmt 0 view .LVU618
 2437 0162 96FBFBF2 		sdiv	r2, r6, fp
 369:Core/Src/dispcolor.c **** 		b = x0 + sb / dy02;
 2438              		.loc 1 369 10 view .LVU619
 2439 0166 BDF81E30 		ldrh	r3, [sp, #30]
 2440 016a 1A44     		add	r2, r2, r3
 2441 016c 12B2     		sxth	r2, r2
 369:Core/Src/dispcolor.c **** 		b = x0 + sb / dy02;
 2442              		.loc 1 369 5 view .LVU620
 2443 016e ADF82620 		strh	r2, [sp, #38]	@ movhi
 370:Core/Src/dispcolor.c **** 		sa += dx01;
 2444              		.loc 1 370 3 is_stmt 1 view .LVU621
 370:Core/Src/dispcolor.c **** 		sa += dx01;
 2445              		.loc 1 370 15 is_stmt 0 view .LVU622
 2446 0172 95FBF8F1 		sdiv	r1, r5, r8
 370:Core/Src/dispcolor.c **** 		sa += dx01;
 2447              		.loc 1 370 10 view .LVU623
 2448 0176 0B44     		add	r3, r3, r1
 2449 0178 1BB2     		sxth	r3, r3
 370:Core/Src/dispcolor.c **** 		sa += dx01;
 2450              		.loc 1 370 5 view .LVU624
 2451 017a ADF82430 		strh	r3, [sp, #36]	@ movhi
 371:Core/Src/dispcolor.c **** 		sb += dx02;
 2452              		.loc 1 371 3 is_stmt 1 view .LVU625
 371:Core/Src/dispcolor.c **** 		sb += dx02;
 2453              		.loc 1 371 6 is_stmt 0 view .LVU626
 2454 017e 0399     		ldr	r1, [sp, #12]
 2455 0180 0E44     		add	r6, r6, r1
 2456              	.LVL274:
 372:Core/Src/dispcolor.c **** 
 2457              		.loc 1 372 3 is_stmt 1 view .LVU627
 372:Core/Src/dispcolor.c **** 
 2458              		.loc 1 372 6 is_stmt 0 view .LVU628
ARM GAS  C:\Users\kroko\AppData\Local\Temp\ccNEdXH2.s 			page 63


 2459 0182 3D44     		add	r5, r5, r7
 2460              	.LVL275:
 374:Core/Src/dispcolor.c **** 			SwapInt16Values(&a, &b);
 2461              		.loc 1 374 3 is_stmt 1 view .LVU629
 374:Core/Src/dispcolor.c **** 			SwapInt16Values(&a, &b);
 2462              		.loc 1 374 6 is_stmt 0 view .LVU630
 2463 0184 9A42     		cmp	r2, r3
 2464 0186 DADD     		ble	.L131
 375:Core/Src/dispcolor.c **** 
 2465              		.loc 1 375 4 is_stmt 1 view .LVU631
 2466 0188 09A9     		add	r1, sp, #36
 2467 018a 0DF12600 		add	r0, sp, #38
 2468 018e FFF7FEFF 		bl	SwapInt16Values
 2469              	.LVL276:
 2470 0192 D4E7     		b	.L131
 2471              	.L141:
 381:Core/Src/dispcolor.c **** 	sb = (int32_t) dx02 * (y - y0);
 2472              		.loc 1 381 27 is_stmt 0 view .LVU632
 2473 0194 DDF814A0 		ldr	r10, [sp, #20]
 2474              	.LVL277:
 381:Core/Src/dispcolor.c **** 	sb = (int32_t) dx02 * (y - y0);
 2475              		.loc 1 381 2 is_stmt 1 view .LVU633
 381:Core/Src/dispcolor.c **** 	sb = (int32_t) dx02 * (y - y0);
 2476              		.loc 1 381 27 is_stmt 0 view .LVU634
 2477 0198 BDF91860 		ldrsh	r6, [sp, #24]
 2478              	.LVL278:
 381:Core/Src/dispcolor.c **** 	sb = (int32_t) dx02 * (y - y0);
 2479              		.loc 1 381 27 view .LVU635
 2480 019c A61B     		subs	r6, r4, r6
 381:Core/Src/dispcolor.c **** 	sb = (int32_t) dx02 * (y - y0);
 2481              		.loc 1 381 5 view .LVU636
 2482 019e 06FB0AF6 		mul	r6, r6, r10
 2483              	.LVL279:
 382:Core/Src/dispcolor.c **** 	for (; y <= y2; y++) {
 2484              		.loc 1 382 2 is_stmt 1 view .LVU637
 382:Core/Src/dispcolor.c **** 	for (; y <= y2; y++) {
 2485              		.loc 1 382 27 is_stmt 0 view .LVU638
 2486 01a2 BDF91C50 		ldrsh	r5, [sp, #28]
 2487              	.LVL280:
 382:Core/Src/dispcolor.c **** 	for (; y <= y2; y++) {
 2488              		.loc 1 382 27 view .LVU639
 2489 01a6 651B     		subs	r5, r4, r5
 382:Core/Src/dispcolor.c **** 	for (; y <= y2; y++) {
 2490              		.loc 1 382 5 view .LVU640
 2491 01a8 07FB05F5 		mul	r5, r7, r5
 2492              	.LVL281:
 383:Core/Src/dispcolor.c **** 		a = x1 + sa / dy12;
 2493              		.loc 1 383 2 is_stmt 1 view .LVU641
 2494 01ac DDF810B0 		ldr	fp, [sp, #16]
 2495              	.LVL282:
 383:Core/Src/dispcolor.c **** 		a = x1 + sa / dy12;
 2496              		.loc 1 383 2 is_stmt 0 view .LVU642
 2497 01b0 0FE0     		b	.L133
 2498              	.L134:
 392:Core/Src/dispcolor.c **** 	}
 2499              		.loc 1 392 3 is_stmt 1 view .LVU643
 2500 01b2 BDF92600 		ldrsh	r0, [sp, #38]
ARM GAS  C:\Users\kroko\AppData\Local\Temp\ccNEdXH2.s 			page 64


 392:Core/Src/dispcolor.c **** 	}
 2501              		.loc 1 392 30 is_stmt 0 view .LVU644
 2502 01b6 BDF82420 		ldrh	r2, [sp, #36]
 2503 01ba 121A     		subs	r2, r2, r0
 2504 01bc 92B2     		uxth	r2, r2
 392:Core/Src/dispcolor.c **** 	}
 2505              		.loc 1 392 34 view .LVU645
 2506 01be 0132     		adds	r2, r2, #1
 392:Core/Src/dispcolor.c **** 	}
 2507              		.loc 1 392 3 view .LVU646
 2508 01c0 CDF80090 		str	r9, [sp]
 2509 01c4 0123     		movs	r3, #1
 2510 01c6 12B2     		sxth	r2, r2
 2511 01c8 2146     		mov	r1, r4
 2512 01ca FFF7FEFF 		bl	dispcolor_FillRect
 2513              	.LVL283:
 383:Core/Src/dispcolor.c **** 		a = x1 + sa / dy12;
 2514              		.loc 1 383 19 is_stmt 1 view .LVU647
 2515 01ce 0134     		adds	r4, r4, #1
 2516              	.LVL284:
 383:Core/Src/dispcolor.c **** 		a = x1 + sa / dy12;
 2517              		.loc 1 383 19 is_stmt 0 view .LVU648
 2518 01d0 24B2     		sxth	r4, r4
 2519              	.LVL285:
 2520              	.L133:
 383:Core/Src/dispcolor.c **** 		a = x1 + sa / dy12;
 2521              		.loc 1 383 11 is_stmt 1 discriminator 1 view .LVU649
 2522 01d2 BDF95430 		ldrsh	r3, [sp, #84]
 2523 01d6 A342     		cmp	r3, r4
 2524 01d8 A2DB     		blt	.L119
 384:Core/Src/dispcolor.c **** 		b = x0 + sb / dy02;
 2525              		.loc 1 384 3 view .LVU650
 384:Core/Src/dispcolor.c **** 		b = x0 + sb / dy02;
 2526              		.loc 1 384 15 is_stmt 0 view .LVU651
 2527 01da 96FBFBF2 		sdiv	r2, r6, fp
 384:Core/Src/dispcolor.c **** 		b = x0 + sb / dy02;
 2528              		.loc 1 384 10 view .LVU652
 2529 01de BDF81A30 		ldrh	r3, [sp, #26]
 2530 01e2 1A44     		add	r2, r2, r3
 2531 01e4 12B2     		sxth	r2, r2
 384:Core/Src/dispcolor.c **** 		b = x0 + sb / dy02;
 2532              		.loc 1 384 5 view .LVU653
 2533 01e6 ADF82620 		strh	r2, [sp, #38]	@ movhi
 385:Core/Src/dispcolor.c **** 		sa += dx12;
 2534              		.loc 1 385 3 is_stmt 1 view .LVU654
 385:Core/Src/dispcolor.c **** 		sa += dx12;
 2535              		.loc 1 385 15 is_stmt 0 view .LVU655
 2536 01ea 95FBF8F3 		sdiv	r3, r5, r8
 385:Core/Src/dispcolor.c **** 		sa += dx12;
 2537              		.loc 1 385 10 view .LVU656
 2538 01ee BDF81E10 		ldrh	r1, [sp, #30]
 2539 01f2 0B44     		add	r3, r3, r1
 2540 01f4 1BB2     		sxth	r3, r3
 385:Core/Src/dispcolor.c **** 		sa += dx12;
 2541              		.loc 1 385 5 view .LVU657
 2542 01f6 ADF82430 		strh	r3, [sp, #36]	@ movhi
 386:Core/Src/dispcolor.c **** 		sb += dx02;
ARM GAS  C:\Users\kroko\AppData\Local\Temp\ccNEdXH2.s 			page 65


 2543              		.loc 1 386 3 is_stmt 1 view .LVU658
 386:Core/Src/dispcolor.c **** 		sb += dx02;
 2544              		.loc 1 386 6 is_stmt 0 view .LVU659
 2545 01fa 5644     		add	r6, r6, r10
 2546              	.LVL286:
 387:Core/Src/dispcolor.c **** 
 2547              		.loc 1 387 3 is_stmt 1 view .LVU660
 387:Core/Src/dispcolor.c **** 
 2548              		.loc 1 387 6 is_stmt 0 view .LVU661
 2549 01fc 3D44     		add	r5, r5, r7
 2550              	.LVL287:
 389:Core/Src/dispcolor.c **** 			SwapInt16Values(&a, &b);
 2551              		.loc 1 389 3 is_stmt 1 view .LVU662
 389:Core/Src/dispcolor.c **** 			SwapInt16Values(&a, &b);
 2552              		.loc 1 389 6 is_stmt 0 view .LVU663
 2553 01fe 9A42     		cmp	r2, r3
 2554 0200 D7DD     		ble	.L134
 390:Core/Src/dispcolor.c **** 
 2555              		.loc 1 390 4 is_stmt 1 view .LVU664
 2556 0202 09A9     		add	r1, sp, #36
 2557 0204 0DF12600 		add	r0, sp, #38
 2558 0208 FFF7FEFF 		bl	SwapInt16Values
 2559              	.LVL288:
 2560 020c D1E7     		b	.L134
 2561              		.cfi_endproc
 2562              	.LFE26:
 2564              		.section	.text.dispcolor_DrawCircle,"ax",%progbits
 2565              		.align	1
 2566              		.global	dispcolor_DrawCircle
 2567              		.syntax unified
 2568              		.thumb
 2569              		.thumb_func
 2571              	dispcolor_DrawCircle:
 2572              	.LVL289:
 2573              	.LFB27:
 397:Core/Src/dispcolor.c **** 	int x = 0;
 2574              		.loc 1 397 39 view -0
 2575              		.cfi_startproc
 2576              		@ args = 4, pretend = 0, frame = 24
 2577              		@ frame_needed = 0, uses_anonymous_args = 0
 397:Core/Src/dispcolor.c **** 	int x = 0;
 2578              		.loc 1 397 39 is_stmt 0 view .LVU666
 2579 0000 2DE9F04F 		push	{r4, r5, r6, r7, r8, r9, r10, fp, lr}
 2580              		.cfi_def_cfa_offset 36
 2581              		.cfi_offset 4, -36
 2582              		.cfi_offset 5, -32
 2583              		.cfi_offset 6, -28
 2584              		.cfi_offset 7, -24
 2585              		.cfi_offset 8, -20
 2586              		.cfi_offset 9, -16
 2587              		.cfi_offset 10, -12
 2588              		.cfi_offset 11, -8
 2589              		.cfi_offset 14, -4
 2590 0004 87B0     		sub	sp, sp, #28
 2591              		.cfi_def_cfa_offset 64
 2592 0006 0490     		str	r0, [sp, #16]
 2593 0008 0591     		str	r1, [sp, #20]
ARM GAS  C:\Users\kroko\AppData\Local\Temp\ccNEdXH2.s 			page 66


 2594 000a 0393     		str	r3, [sp, #12]
 2595 000c 9DF84030 		ldrb	r3, [sp, #64]	@ zero_extendqisi2
 2596              	.LVL290:
 397:Core/Src/dispcolor.c **** 	int x = 0;
 2597              		.loc 1 397 39 view .LVU667
 2598 0010 0293     		str	r3, [sp, #8]
 398:Core/Src/dispcolor.c **** 	int y = radius;
 2599              		.loc 1 398 2 is_stmt 1 view .LVU668
 2600              	.LVL291:
 399:Core/Src/dispcolor.c **** 	int delta = 1 - 2 * radius;
 2601              		.loc 1 399 2 view .LVU669
 399:Core/Src/dispcolor.c **** 	int delta = 1 - 2 * radius;
 2602              		.loc 1 399 6 is_stmt 0 view .LVU670
 2603 0012 9046     		mov	r8, r2
 2604              	.LVL292:
 400:Core/Src/dispcolor.c **** 	int error = 0;
 2605              		.loc 1 400 2 is_stmt 1 view .LVU671
 400:Core/Src/dispcolor.c **** 	int error = 0;
 2606              		.loc 1 400 20 is_stmt 0 view .LVU672
 2607 0014 5200     		lsls	r2, r2, #1
 2608              	.LVL293:
 400:Core/Src/dispcolor.c **** 	int error = 0;
 2609              		.loc 1 400 6 view .LVU673
 2610 0016 C2F10107 		rsb	r7, r2, #1
 2611              	.LVL294:
 401:Core/Src/dispcolor.c **** 
 2612              		.loc 1 401 2 is_stmt 1 view .LVU674
 403:Core/Src/dispcolor.c **** 		correction = 1;
 2613              		.loc 1 403 2 view .LVU675
 403:Core/Src/dispcolor.c **** 		correction = 1;
 2614              		.loc 1 403 5 is_stmt 0 view .LVU676
 2615 001a 002B     		cmp	r3, #0
 2616 001c 5CD1     		bne	.L150
 2617              	.L143:
 2618              	.LVL295:
 404:Core/Src/dispcolor.c **** 
 2619              		.loc 1 404 14 view .LVU677
 2620 001e 0023     		movs	r3, #0
 2621 0020 0193     		str	r3, [sp, #4]
 2622 0022 11E0     		b	.L148
 2623              	.LVL296:
 2624              	.L153:
 413:Core/Src/dispcolor.c **** 			++x;
 2625              		.loc 1 413 17 discriminator 1 view .LVU678
 2626 0024 012B     		cmp	r3, #1
 2627 0026 48DC     		bgt	.L145
 414:Core/Src/dispcolor.c **** 			delta += 2 * x + 1;
 2628              		.loc 1 414 4 is_stmt 1 view .LVU679
 2629 0028 019B     		ldr	r3, [sp, #4]
 2630              	.LVL297:
 414:Core/Src/dispcolor.c **** 			delta += 2 * x + 1;
 2631              		.loc 1 414 4 is_stmt 0 view .LVU680
 2632 002a 0133     		adds	r3, r3, #1
 2633 002c 0193     		str	r3, [sp, #4]
 2634              	.LVL298:
 415:Core/Src/dispcolor.c **** 			continue;
 2635              		.loc 1 415 4 is_stmt 1 view .LVU681
ARM GAS  C:\Users\kroko\AppData\Local\Temp\ccNEdXH2.s 			page 67


 415:Core/Src/dispcolor.c **** 			continue;
 2636              		.loc 1 415 15 is_stmt 0 view .LVU682
 2637 002e 5B00     		lsls	r3, r3, #1
 2638              	.LVL299:
 415:Core/Src/dispcolor.c **** 			continue;
 2639              		.loc 1 415 19 view .LVU683
 2640 0030 0133     		adds	r3, r3, #1
 415:Core/Src/dispcolor.c **** 			continue;
 2641              		.loc 1 415 10 view .LVU684
 2642 0032 1F44     		add	r7, r7, r3
 2643              	.LVL300:
 416:Core/Src/dispcolor.c **** 		}
 2644              		.loc 1 416 4 is_stmt 1 view .LVU685
 2645 0034 08E0     		b	.L148
 2646              	.LVL301:
 2647              	.L147:
 427:Core/Src/dispcolor.c **** 		delta += 2 * (x - y);
 2648              		.loc 1 427 3 view .LVU686
 2649 0036 019B     		ldr	r3, [sp, #4]
 2650              	.LVL302:
 427:Core/Src/dispcolor.c **** 		delta += 2 * (x - y);
 2651              		.loc 1 427 3 is_stmt 0 view .LVU687
 2652 0038 0133     		adds	r3, r3, #1
 2653 003a 0193     		str	r3, [sp, #4]
 2654              	.LVL303:
 428:Core/Src/dispcolor.c **** 		--y;
 2655              		.loc 1 428 3 is_stmt 1 view .LVU688
 428:Core/Src/dispcolor.c **** 		--y;
 2656              		.loc 1 428 19 is_stmt 0 view .LVU689
 2657 003c A3EB0803 		sub	r3, r3, r8
 2658              	.LVL304:
 428:Core/Src/dispcolor.c **** 		--y;
 2659              		.loc 1 428 9 view .LVU690
 2660 0040 07EB4307 		add	r7, r7, r3, lsl #1
 2661              	.LVL305:
 429:Core/Src/dispcolor.c **** 	}
 2662              		.loc 1 429 3 is_stmt 1 view .LVU691
 2663 0044 08F1FF38 		add	r8, r8, #-1
 2664              	.LVL306:
 2665              	.L148:
 406:Core/Src/dispcolor.c **** 		dispcolor_DrawPixel(x0 + x, y0 + y + correction, color);
 2666              		.loc 1 406 11 view .LVU692
 2667 0048 B8F1000F 		cmp	r8, #0
 2668 004c 47DB     		blt	.L152
 407:Core/Src/dispcolor.c **** 		dispcolor_DrawPixel(x0 + x, y0 - y, color);
 2669              		.loc 1 407 3 view .LVU693
 407:Core/Src/dispcolor.c **** 		dispcolor_DrawPixel(x0 + x, y0 - y, color);
 2670              		.loc 1 407 26 is_stmt 0 view .LVU694
 2671 004e BDF80490 		ldrh	r9, [sp, #4]
 2672 0052 BDF81040 		ldrh	r4, [sp, #16]
 2673 0056 09EB040A 		add	r10, r9, r4
 407:Core/Src/dispcolor.c **** 		dispcolor_DrawPixel(x0 + x, y0 - y, color);
 2674              		.loc 1 407 3 view .LVU695
 2675 005a 0FFA8AFA 		sxth	r10, r10
 407:Core/Src/dispcolor.c **** 		dispcolor_DrawPixel(x0 + x, y0 - y, color);
 2676              		.loc 1 407 34 view .LVU696
 2677 005e 1FFA88FB 		uxth	fp, r8
ARM GAS  C:\Users\kroko\AppData\Local\Temp\ccNEdXH2.s 			page 68


 2678 0062 BDF81450 		ldrh	r5, [sp, #20]
 2679 0066 0BEB0506 		add	r6, fp, r5
 407:Core/Src/dispcolor.c **** 		dispcolor_DrawPixel(x0 + x, y0 - y, color);
 2680              		.loc 1 407 38 view .LVU697
 2681 006a 029B     		ldr	r3, [sp, #8]
 2682 006c 13FA86F6 		uxtah	r6, r3, r6
 407:Core/Src/dispcolor.c **** 		dispcolor_DrawPixel(x0 + x, y0 - y, color);
 2683              		.loc 1 407 3 view .LVU698
 2684 0070 36B2     		sxth	r6, r6
 2685 0072 039A     		ldr	r2, [sp, #12]
 2686 0074 3146     		mov	r1, r6
 2687 0076 5046     		mov	r0, r10
 2688 0078 FFF7FEFF 		bl	dispcolor_DrawPixel
 2689              	.LVL307:
 408:Core/Src/dispcolor.c **** 		dispcolor_DrawPixel(x0 - x + correction, y0 + y + correction, color);
 2690              		.loc 1 408 3 is_stmt 1 view .LVU699
 408:Core/Src/dispcolor.c **** 		dispcolor_DrawPixel(x0 - x + correction, y0 + y + correction, color);
 2691              		.loc 1 408 34 is_stmt 0 view .LVU700
 2692 007c A5EB0B05 		sub	r5, r5, fp
 408:Core/Src/dispcolor.c **** 		dispcolor_DrawPixel(x0 - x + correction, y0 + y + correction, color);
 2693              		.loc 1 408 3 view .LVU701
 2694 0080 2DB2     		sxth	r5, r5
 2695 0082 DDF80CB0 		ldr	fp, [sp, #12]
 2696 0086 5A46     		mov	r2, fp
 2697 0088 2946     		mov	r1, r5
 2698 008a 5046     		mov	r0, r10
 2699 008c FFF7FEFF 		bl	dispcolor_DrawPixel
 2700              	.LVL308:
 409:Core/Src/dispcolor.c **** 		dispcolor_DrawPixel(x0 - x + correction, y0 - y, color);
 2701              		.loc 1 409 3 is_stmt 1 view .LVU702
 409:Core/Src/dispcolor.c **** 		dispcolor_DrawPixel(x0 - x + correction, y0 - y, color);
 2702              		.loc 1 409 26 is_stmt 0 view .LVU703
 2703 0090 A4EB0904 		sub	r4, r4, r9
 409:Core/Src/dispcolor.c **** 		dispcolor_DrawPixel(x0 - x + correction, y0 - y, color);
 2704              		.loc 1 409 30 view .LVU704
 2705 0094 029B     		ldr	r3, [sp, #8]
 2706 0096 13FA84F4 		uxtah	r4, r3, r4
 409:Core/Src/dispcolor.c **** 		dispcolor_DrawPixel(x0 - x + correction, y0 - y, color);
 2707              		.loc 1 409 3 view .LVU705
 2708 009a 24B2     		sxth	r4, r4
 2709 009c 5A46     		mov	r2, fp
 2710 009e 3146     		mov	r1, r6
 2711 00a0 2046     		mov	r0, r4
 2712 00a2 FFF7FEFF 		bl	dispcolor_DrawPixel
 2713              	.LVL309:
 410:Core/Src/dispcolor.c **** 		error = 2 * (delta + y) - 1;
 2714              		.loc 1 410 3 is_stmt 1 view .LVU706
 2715 00a6 5A46     		mov	r2, fp
 2716 00a8 2946     		mov	r1, r5
 2717 00aa 2046     		mov	r0, r4
 2718 00ac FFF7FEFF 		bl	dispcolor_DrawPixel
 2719              	.LVL310:
 411:Core/Src/dispcolor.c **** 
 2720              		.loc 1 411 3 view .LVU707
 411:Core/Src/dispcolor.c **** 
 2721              		.loc 1 411 22 is_stmt 0 view .LVU708
 2722 00b0 08EB0703 		add	r3, r8, r7
ARM GAS  C:\Users\kroko\AppData\Local\Temp\ccNEdXH2.s 			page 69


 411:Core/Src/dispcolor.c **** 
 2723              		.loc 1 411 13 view .LVU709
 2724 00b4 5B00     		lsls	r3, r3, #1
 2725              	.LVL311:
 413:Core/Src/dispcolor.c **** 			++x;
 2726              		.loc 1 413 3 is_stmt 1 view .LVU710
 413:Core/Src/dispcolor.c **** 			++x;
 2727              		.loc 1 413 6 is_stmt 0 view .LVU711
 2728 00b6 002F     		cmp	r7, #0
 2729 00b8 B4DB     		blt	.L153
 2730              	.L145:
 419:Core/Src/dispcolor.c **** 
 2731              		.loc 1 419 3 is_stmt 1 view .LVU712
 419:Core/Src/dispcolor.c **** 
 2732              		.loc 1 419 22 is_stmt 0 view .LVU713
 2733 00ba 019B     		ldr	r3, [sp, #4]
 2734              	.LVL312:
 419:Core/Src/dispcolor.c **** 
 2735              		.loc 1 419 22 view .LVU714
 2736 00bc FB1A     		subs	r3, r7, r3
 419:Core/Src/dispcolor.c **** 
 2737              		.loc 1 419 13 view .LVU715
 2738 00be 5B00     		lsls	r3, r3, #1
 2739              	.LVL313:
 421:Core/Src/dispcolor.c **** 			--y;
 2740              		.loc 1 421 3 is_stmt 1 view .LVU716
 421:Core/Src/dispcolor.c **** 			--y;
 2741              		.loc 1 421 6 is_stmt 0 view .LVU717
 2742 00c0 002F     		cmp	r7, #0
 2743 00c2 B8DD     		ble	.L147
 421:Core/Src/dispcolor.c **** 			--y;
 2744              		.loc 1 421 17 discriminator 1 view .LVU718
 2745 00c4 012B     		cmp	r3, #1
 2746 00c6 B6DD     		ble	.L147
 422:Core/Src/dispcolor.c **** 			delta += 1 - 2 * y;
 2747              		.loc 1 422 4 is_stmt 1 view .LVU719
 2748 00c8 08F1FF38 		add	r8, r8, #-1
 2749              	.LVL314:
 423:Core/Src/dispcolor.c **** 			continue;
 2750              		.loc 1 423 4 view .LVU720
 423:Core/Src/dispcolor.c **** 			continue;
 2751              		.loc 1 423 19 is_stmt 0 view .LVU721
 2752 00cc 4FEA4803 		lsl	r3, r8, #1
 2753              	.LVL315:
 423:Core/Src/dispcolor.c **** 			continue;
 2754              		.loc 1 423 15 view .LVU722
 2755 00d0 C3F10103 		rsb	r3, r3, #1
 423:Core/Src/dispcolor.c **** 			continue;
 2756              		.loc 1 423 10 view .LVU723
 2757 00d4 1F44     		add	r7, r7, r3
 2758              	.LVL316:
 424:Core/Src/dispcolor.c **** 		}
 2759              		.loc 1 424 4 is_stmt 1 view .LVU724
 2760 00d6 B7E7     		b	.L148
 2761              	.LVL317:
 2762              	.L150:
 404:Core/Src/dispcolor.c **** 
ARM GAS  C:\Users\kroko\AppData\Local\Temp\ccNEdXH2.s 			page 70


 2763              		.loc 1 404 14 is_stmt 0 view .LVU725
 2764 00d8 0123     		movs	r3, #1
 2765 00da 0293     		str	r3, [sp, #8]
 2766 00dc 9FE7     		b	.L143
 2767              	.LVL318:
 2768              	.L152:
 431:Core/Src/dispcolor.c **** 
 2769              		.loc 1 431 1 view .LVU726
 2770 00de 07B0     		add	sp, sp, #28
 2771              		.cfi_def_cfa_offset 36
 2772              		@ sp needed
 2773 00e0 BDE8F08F 		pop	{r4, r5, r6, r7, r8, r9, r10, fp, pc}
 431:Core/Src/dispcolor.c **** 
 2774              		.loc 1 431 1 view .LVU727
 2775              		.cfi_endproc
 2776              	.LFE27:
 2778              		.global	__aeabi_f2d
 2779              		.global	__aeabi_dsub
 2780              		.section	.text.dispcolor_DrawCircle_Wu,"ax",%progbits
 2781              		.align	1
 2782              		.global	dispcolor_DrawCircle_Wu
 2783              		.syntax unified
 2784              		.thumb
 2785              		.thumb_func
 2787              	dispcolor_DrawCircle_Wu:
 2788              	.LVL319:
 2789              	.LFB28:
 434:Core/Src/dispcolor.c **** 	int16_t i = 0;
 2790              		.loc 1 434 19 is_stmt 1 view -0
 2791              		.cfi_startproc
 2792              		@ args = 0, pretend = 0, frame = 32
 2793              		@ frame_needed = 0, uses_anonymous_args = 0
 434:Core/Src/dispcolor.c **** 	int16_t i = 0;
 2794              		.loc 1 434 19 is_stmt 0 view .LVU729
 2795 0000 2DE9F04F 		push	{r4, r5, r6, r7, r8, r9, r10, fp, lr}
 2796              		.cfi_def_cfa_offset 36
 2797              		.cfi_offset 4, -36
 2798              		.cfi_offset 5, -32
 2799              		.cfi_offset 6, -28
 2800              		.cfi_offset 7, -24
 2801              		.cfi_offset 8, -20
 2802              		.cfi_offset 9, -16
 2803              		.cfi_offset 10, -12
 2804              		.cfi_offset 11, -8
 2805              		.cfi_offset 14, -4
 2806 0004 2DED028B 		vpush.64	{d8}
 2807              		.cfi_def_cfa_offset 44
 2808              		.cfi_offset 80, -44
 2809              		.cfi_offset 81, -40
 2810 0008 89B0     		sub	sp, sp, #36
 2811              		.cfi_def_cfa_offset 80
 2812 000a 0590     		str	r0, [sp, #20]
 2813 000c 0691     		str	r1, [sp, #24]
 2814 000e 0792     		str	r2, [sp, #28]
 2815 0010 9B46     		mov	fp, r3
 435:Core/Src/dispcolor.c **** 	int16_t j = radius;
 2816              		.loc 1 435 2 is_stmt 1 view .LVU730
ARM GAS  C:\Users\kroko\AppData\Local\Temp\ccNEdXH2.s 			page 71


 2817              	.LVL320:
 436:Core/Src/dispcolor.c **** 	float last_fade_amount = 0;
 2818              		.loc 1 436 2 view .LVU731
 437:Core/Src/dispcolor.c **** 
 2819              		.loc 1 437 2 view .LVU732
 439:Core/Src/dispcolor.c **** 		float height = sqrt(fmax(radius * radius - i * i, 0));
 2820              		.loc 1 439 2 view .LVU733
 436:Core/Src/dispcolor.c **** 	float last_fade_amount = 0;
 2821              		.loc 1 436 10 is_stmt 0 view .LVU734
 2822 0012 0092     		str	r2, [sp]
 437:Core/Src/dispcolor.c **** 
 2823              		.loc 1 437 8 view .LVU735
 2824 0014 DFED7A8A 		vldr.32	s17, .L162+8
 435:Core/Src/dispcolor.c **** 	int16_t j = radius;
 2825              		.loc 1 435 10 view .LVU736
 2826 0018 0024     		movs	r4, #0
 439:Core/Src/dispcolor.c **** 		float height = sqrt(fmax(radius * radius - i * i, 0));
 2827              		.loc 1 439 8 view .LVU737
 2828 001a B2E0     		b	.L155
 2829              	.LVL321:
 2830              	.L156:
 2831              	.LBB13:
 446:Core/Src/dispcolor.c **** 
 2832              		.loc 1 446 3 is_stmt 1 view .LVU738
 449:Core/Src/dispcolor.c **** 		DrawPixel(x0 + i, y0 - j + 1, color, fade_amount);
 2833              		.loc 1 449 3 view .LVU739
 449:Core/Src/dispcolor.c **** 		DrawPixel(x0 + i, y0 - j + 1, color, fade_amount);
 2834              		.loc 1 449 16 is_stmt 0 view .LVU740
 2835 001c BDF81430 		ldrh	r3, [sp, #20]
 2836 0020 A4B2     		uxth	r4, r4
 449:Core/Src/dispcolor.c **** 		DrawPixel(x0 + i, y0 - j + 1, color, fade_amount);
 2837              		.loc 1 449 16 view .LVU741
 2838 0022 1F46     		mov	r7, r3
 2839 0024 03EB0408 		add	r8, r3, r4
 449:Core/Src/dispcolor.c **** 		DrawPixel(x0 + i, y0 - j + 1, color, fade_amount);
 2840              		.loc 1 449 3 view .LVU742
 2841 0028 0FFA88F8 		sxth	r8, r8
 449:Core/Src/dispcolor.c **** 		DrawPixel(x0 + i, y0 - j + 1, color, fade_amount);
 2842              		.loc 1 449 24 view .LVU743
 2843 002c BDF81850 		ldrh	r5, [sp, #24]
 2844 0030 BDF800A0 		ldrh	r10, [sp]
 2845 0034 A5EB0A03 		sub	r3, r5, r10
 2846 0038 9EB2     		uxth	r6, r3
 449:Core/Src/dispcolor.c **** 		DrawPixel(x0 + i, y0 - j + 1, color, fade_amount);
 2847              		.loc 1 449 3 view .LVU744
 2848 003a 1BB2     		sxth	r3, r3
 2849 003c F7EE008A 		vmov.f32	s17, #1.0e+0
 2850 0040 78EEC88A 		vsub.f32	s17, s17, s16
 2851 0044 B0EE680A 		vmov.f32	s0, s17
 2852 0048 5A46     		mov	r2, fp
 2853 004a 0293     		str	r3, [sp, #8]
 2854 004c 1946     		mov	r1, r3
 2855 004e 4046     		mov	r0, r8
 2856              	.LVL322:
 449:Core/Src/dispcolor.c **** 		DrawPixel(x0 + i, y0 - j + 1, color, fade_amount);
 2857              		.loc 1 449 3 view .LVU745
 2858 0050 FFF7FEFF 		bl	DrawPixel
ARM GAS  C:\Users\kroko\AppData\Local\Temp\ccNEdXH2.s 			page 72


 2859              	.LVL323:
 450:Core/Src/dispcolor.c **** 
 2860              		.loc 1 450 3 is_stmt 1 view .LVU746
 450:Core/Src/dispcolor.c **** 
 2861              		.loc 1 450 28 is_stmt 0 view .LVU747
 2862 0054 0136     		adds	r6, r6, #1
 450:Core/Src/dispcolor.c **** 
 2863              		.loc 1 450 3 view .LVU748
 2864 0056 32B2     		sxth	r2, r6
 2865 0058 1046     		mov	r0, r2
 2866 005a B0EE480A 		vmov.f32	s0, s16
 2867 005e 5A46     		mov	r2, fp
 2868 0060 0390     		str	r0, [sp, #12]
 2869 0062 0146     		mov	r1, r0
 2870 0064 4046     		mov	r0, r8
 2871 0066 FFF7FEFF 		bl	DrawPixel
 2872              	.LVL324:
 452:Core/Src/dispcolor.c **** 		DrawPixel(x0 + j - 1, y0 - i, color, fade_amount);
 2873              		.loc 1 452 3 is_stmt 1 view .LVU749
 452:Core/Src/dispcolor.c **** 		DrawPixel(x0 + j - 1, y0 - i, color, fade_amount);
 2874              		.loc 1 452 16 is_stmt 0 view .LVU750
 2875 006a 0197     		str	r7, [sp, #4]
 2876 006c 07EB0A03 		add	r3, r7, r10
 2877 0070 1FFA83F9 		uxth	r9, r3
 452:Core/Src/dispcolor.c **** 		DrawPixel(x0 + j - 1, y0 - i, color, fade_amount);
 2878              		.loc 1 452 3 view .LVU751
 2879 0074 1AB2     		sxth	r2, r3
 2880 0076 1046     		mov	r0, r2
 452:Core/Src/dispcolor.c **** 		DrawPixel(x0 + j - 1, y0 - i, color, fade_amount);
 2881              		.loc 1 452 24 view .LVU752
 2882 0078 2E1B     		subs	r6, r5, r4
 452:Core/Src/dispcolor.c **** 		DrawPixel(x0 + j - 1, y0 - i, color, fade_amount);
 2883              		.loc 1 452 3 view .LVU753
 2884 007a 36B2     		sxth	r6, r6
 2885 007c B0EE680A 		vmov.f32	s0, s17
 2886 0080 5A46     		mov	r2, fp
 2887 0082 3146     		mov	r1, r6
 2888 0084 0490     		str	r0, [sp, #16]
 2889 0086 FFF7FEFF 		bl	DrawPixel
 2890              	.LVL325:
 453:Core/Src/dispcolor.c **** 
 2891              		.loc 1 453 3 is_stmt 1 view .LVU754
 453:Core/Src/dispcolor.c **** 
 2892              		.loc 1 453 20 is_stmt 0 view .LVU755
 2893 008a 09F1FF39 		add	r9, r9, #-1
 453:Core/Src/dispcolor.c **** 
 2894              		.loc 1 453 3 view .LVU756
 2895 008e 0FFA89F9 		sxth	r9, r9
 2896 0092 B0EE480A 		vmov.f32	s0, s16
 2897 0096 5A46     		mov	r2, fp
 2898 0098 3146     		mov	r1, r6
 2899 009a 4846     		mov	r0, r9
 2900 009c FFF7FEFF 		bl	DrawPixel
 2901              	.LVL326:
 455:Core/Src/dispcolor.c **** 		DrawPixel(x0 + j - 1, y0 + i, color, fade_amount);
 2902              		.loc 1 455 3 is_stmt 1 view .LVU757
 455:Core/Src/dispcolor.c **** 		DrawPixel(x0 + j - 1, y0 + i, color, fade_amount);
ARM GAS  C:\Users\kroko\AppData\Local\Temp\ccNEdXH2.s 			page 73


 2903              		.loc 1 455 24 is_stmt 0 view .LVU758
 2904 00a0 6719     		adds	r7, r4, r5
 455:Core/Src/dispcolor.c **** 		DrawPixel(x0 + j - 1, y0 + i, color, fade_amount);
 2905              		.loc 1 455 3 view .LVU759
 2906 00a2 3FB2     		sxth	r7, r7
 2907 00a4 B0EE680A 		vmov.f32	s0, s17
 2908 00a8 5A46     		mov	r2, fp
 2909 00aa 3946     		mov	r1, r7
 2910 00ac 0498     		ldr	r0, [sp, #16]
 2911 00ae FFF7FEFF 		bl	DrawPixel
 2912              	.LVL327:
 456:Core/Src/dispcolor.c **** 
 2913              		.loc 1 456 3 is_stmt 1 view .LVU760
 2914 00b2 B0EE480A 		vmov.f32	s0, s16
 2915 00b6 5A46     		mov	r2, fp
 2916 00b8 3946     		mov	r1, r7
 2917 00ba 4846     		mov	r0, r9
 2918 00bc FFF7FEFF 		bl	DrawPixel
 2919              	.LVL328:
 458:Core/Src/dispcolor.c **** 		DrawPixel(x0 + i, y0 + j - 1, color, fade_amount);
 2920              		.loc 1 458 3 view .LVU761
 458:Core/Src/dispcolor.c **** 		DrawPixel(x0 + i, y0 + j - 1, color, fade_amount);
 2921              		.loc 1 458 24 is_stmt 0 view .LVU762
 2922 00c0 5544     		add	r5, r5, r10
 2923 00c2 1FFA85F9 		uxth	r9, r5
 458:Core/Src/dispcolor.c **** 		DrawPixel(x0 + i, y0 + j - 1, color, fade_amount);
 2924              		.loc 1 458 3 view .LVU763
 2925 00c6 2DB2     		sxth	r5, r5
 2926 00c8 B0EE680A 		vmov.f32	s0, s17
 2927 00cc 5A46     		mov	r2, fp
 2928 00ce 2946     		mov	r1, r5
 2929 00d0 4046     		mov	r0, r8
 2930 00d2 FFF7FEFF 		bl	DrawPixel
 2931              	.LVL329:
 459:Core/Src/dispcolor.c **** 
 2932              		.loc 1 459 3 is_stmt 1 view .LVU764
 459:Core/Src/dispcolor.c **** 
 2933              		.loc 1 459 28 is_stmt 0 view .LVU765
 2934 00d6 09F1FF39 		add	r9, r9, #-1
 459:Core/Src/dispcolor.c **** 
 2935              		.loc 1 459 3 view .LVU766
 2936 00da 0FFA89F9 		sxth	r9, r9
 2937 00de B0EE480A 		vmov.f32	s0, s16
 2938 00e2 5A46     		mov	r2, fp
 2939 00e4 4946     		mov	r1, r9
 2940 00e6 4046     		mov	r0, r8
 2941 00e8 FFF7FEFF 		bl	DrawPixel
 2942              	.LVL330:
 461:Core/Src/dispcolor.c **** 		DrawPixel(x0 - i, y0 + j - 1, color, fade_amount);
 2943              		.loc 1 461 3 is_stmt 1 view .LVU767
 461:Core/Src/dispcolor.c **** 		DrawPixel(x0 - i, y0 + j - 1, color, fade_amount);
 2944              		.loc 1 461 16 is_stmt 0 view .LVU768
 2945 00ec 019B     		ldr	r3, [sp, #4]
 2946 00ee A3EB0408 		sub	r8, r3, r4
 461:Core/Src/dispcolor.c **** 		DrawPixel(x0 - i, y0 + j - 1, color, fade_amount);
 2947              		.loc 1 461 3 view .LVU769
 2948 00f2 0FFA88F8 		sxth	r8, r8
ARM GAS  C:\Users\kroko\AppData\Local\Temp\ccNEdXH2.s 			page 74


 2949 00f6 B0EE680A 		vmov.f32	s0, s17
 2950 00fa 5A46     		mov	r2, fp
 2951 00fc 2946     		mov	r1, r5
 2952 00fe 4046     		mov	r0, r8
 2953 0100 FFF7FEFF 		bl	DrawPixel
 2954              	.LVL331:
 462:Core/Src/dispcolor.c **** 
 2955              		.loc 1 462 3 is_stmt 1 view .LVU770
 2956 0104 B0EE480A 		vmov.f32	s0, s16
 2957 0108 5A46     		mov	r2, fp
 2958 010a 4946     		mov	r1, r9
 2959 010c 4046     		mov	r0, r8
 2960 010e FFF7FEFF 		bl	DrawPixel
 2961              	.LVL332:
 464:Core/Src/dispcolor.c **** 		DrawPixel(x0 - j + 1, y0 + i, color, fade_amount);
 2962              		.loc 1 464 3 view .LVU771
 464:Core/Src/dispcolor.c **** 		DrawPixel(x0 - j + 1, y0 + i, color, fade_amount);
 2963              		.loc 1 464 16 is_stmt 0 view .LVU772
 2964 0112 019B     		ldr	r3, [sp, #4]
 2965 0114 A3EB0A05 		sub	r5, r3, r10
 2966 0118 1FFA85F9 		uxth	r9, r5
 464:Core/Src/dispcolor.c **** 		DrawPixel(x0 - j + 1, y0 + i, color, fade_amount);
 2967              		.loc 1 464 3 view .LVU773
 2968 011c 2DB2     		sxth	r5, r5
 2969 011e B0EE680A 		vmov.f32	s0, s17
 2970 0122 5A46     		mov	r2, fp
 2971 0124 3946     		mov	r1, r7
 2972 0126 2846     		mov	r0, r5
 2973 0128 FFF7FEFF 		bl	DrawPixel
 2974              	.LVL333:
 465:Core/Src/dispcolor.c **** 
 2975              		.loc 1 465 3 is_stmt 1 view .LVU774
 465:Core/Src/dispcolor.c **** 
 2976              		.loc 1 465 20 is_stmt 0 view .LVU775
 2977 012c 09F10109 		add	r9, r9, #1
 465:Core/Src/dispcolor.c **** 
 2978              		.loc 1 465 3 view .LVU776
 2979 0130 0FFA89F9 		sxth	r9, r9
 2980 0134 B0EE480A 		vmov.f32	s0, s16
 2981 0138 5A46     		mov	r2, fp
 2982 013a 3946     		mov	r1, r7
 2983 013c 4846     		mov	r0, r9
 2984 013e FFF7FEFF 		bl	DrawPixel
 2985              	.LVL334:
 467:Core/Src/dispcolor.c **** 		DrawPixel(x0 - j + 1, y0 - i, color, fade_amount);
 2986              		.loc 1 467 3 is_stmt 1 view .LVU777
 2987 0142 B0EE680A 		vmov.f32	s0, s17
 2988 0146 5A46     		mov	r2, fp
 2989 0148 3146     		mov	r1, r6
 2990 014a 2846     		mov	r0, r5
 2991 014c FFF7FEFF 		bl	DrawPixel
 2992              	.LVL335:
 468:Core/Src/dispcolor.c **** 
 2993              		.loc 1 468 3 view .LVU778
 2994 0150 B0EE480A 		vmov.f32	s0, s16
 2995 0154 5A46     		mov	r2, fp
 2996 0156 3146     		mov	r1, r6
ARM GAS  C:\Users\kroko\AppData\Local\Temp\ccNEdXH2.s 			page 75


 2997 0158 4846     		mov	r0, r9
 2998 015a FFF7FEFF 		bl	DrawPixel
 2999              	.LVL336:
 470:Core/Src/dispcolor.c **** 		DrawPixel(x0 - i, y0 - j + 1, color, fade_amount);
 3000              		.loc 1 470 3 view .LVU779
 3001 015e B0EE680A 		vmov.f32	s0, s17
 3002 0162 5A46     		mov	r2, fp
 3003 0164 0299     		ldr	r1, [sp, #8]
 3004 0166 4046     		mov	r0, r8
 3005 0168 FFF7FEFF 		bl	DrawPixel
 3006              	.LVL337:
 471:Core/Src/dispcolor.c **** 
 3007              		.loc 1 471 3 view .LVU780
 3008 016c B0EE480A 		vmov.f32	s0, s16
 3009 0170 5A46     		mov	r2, fp
 3010 0172 0399     		ldr	r1, [sp, #12]
 3011 0174 4046     		mov	r0, r8
 3012 0176 FFF7FEFF 		bl	DrawPixel
 3013              	.LVL338:
 473:Core/Src/dispcolor.c **** 	}
 3014              		.loc 1 473 3 view .LVU781
 473:Core/Src/dispcolor.c **** 	}
 3015              		.loc 1 473 4 is_stmt 0 view .LVU782
 3016 017a 0134     		adds	r4, r4, #1
 3017              	.LVL339:
 473:Core/Src/dispcolor.c **** 	}
 3018              		.loc 1 473 4 view .LVU783
 3019 017c 24B2     		sxth	r4, r4
 3020              	.LVL340:
 446:Core/Src/dispcolor.c **** 
 3021              		.loc 1 446 20 view .LVU784
 3022 017e F0EE488A 		vmov.f32	s17, s16
 3023              	.LVL341:
 3024              	.L155:
 446:Core/Src/dispcolor.c **** 
 3025              		.loc 1 446 20 view .LVU785
 3026              	.LBE13:
 439:Core/Src/dispcolor.c **** 		float height = sqrt(fmax(radius * radius - i * i, 0));
 3027              		.loc 1 439 11 is_stmt 1 view .LVU786
 3028 0182 009B     		ldr	r3, [sp]
 3029 0184 9C42     		cmp	r4, r3
 3030 0186 2FDA     		bge	.L161
 3031              	.LBB14:
 440:Core/Src/dispcolor.c **** 		float fade_amount = ceil(height) - height;
 3032              		.loc 1 440 3 view .LVU787
 440:Core/Src/dispcolor.c **** 		float fade_amount = ceil(height) - height;
 3033              		.loc 1 440 35 is_stmt 0 view .LVU788
 3034 0188 079B     		ldr	r3, [sp, #28]
 3035 018a 03FB03F0 		mul	r0, r3, r3
 440:Core/Src/dispcolor.c **** 		float fade_amount = ceil(height) - height;
 3036              		.loc 1 440 18 view .LVU789
 3037 018e 04FB1400 		mls	r0, r4, r4, r0
 3038 0192 FFF7FEFF 		bl	__aeabi_i2d
 3039              	.LVL342:
 3040 0196 9FED181B 		vldr.64	d1, .L162
 3041 019a 41EC100B 		vmov	d0, r0, r1
 3042 019e FFF7FEFF 		bl	fmax
ARM GAS  C:\Users\kroko\AppData\Local\Temp\ccNEdXH2.s 			page 76


 3043              	.LVL343:
 440:Core/Src/dispcolor.c **** 		float fade_amount = ceil(height) - height;
 3044              		.loc 1 440 18 discriminator 1 view .LVU790
 3045 01a2 FFF7FEFF 		bl	sqrt
 3046              	.LVL344:
 3047 01a6 51EC100B 		vmov	r0, r1, d0
 440:Core/Src/dispcolor.c **** 		float fade_amount = ceil(height) - height;
 3048              		.loc 1 440 9 discriminator 2 view .LVU791
 3049 01aa FFF7FEFF 		bl	__aeabi_d2f
 3050              	.LVL345:
 441:Core/Src/dispcolor.c **** 
 3051              		.loc 1 441 3 is_stmt 1 view .LVU792
 441:Core/Src/dispcolor.c **** 
 3052              		.loc 1 441 23 is_stmt 0 view .LVU793
 3053 01ae FFF7FEFF 		bl	__aeabi_f2d
 3054              	.LVL346:
 441:Core/Src/dispcolor.c **** 
 3055              		.loc 1 441 23 view .LVU794
 3056 01b2 0646     		mov	r6, r0
 3057 01b4 0F46     		mov	r7, r1
 3058 01b6 47EC106B 		vmov	d0, r6, r7
 3059 01ba FFF7FEFF 		bl	ceil
 3060              	.LVL347:
 3061 01be 51EC100B 		vmov	r0, r1, d0
 441:Core/Src/dispcolor.c **** 
 3062              		.loc 1 441 36 discriminator 1 view .LVU795
 3063 01c2 3246     		mov	r2, r6
 3064 01c4 3B46     		mov	r3, r7
 3065 01c6 FFF7FEFF 		bl	__aeabi_dsub
 3066              	.LVL348:
 441:Core/Src/dispcolor.c **** 
 3067              		.loc 1 441 9 discriminator 1 view .LVU796
 3068 01ca FFF7FEFF 		bl	__aeabi_d2f
 3069              	.LVL349:
 3070 01ce 08EE100A 		vmov	s16, r0
 3071              	.LVL350:
 443:Core/Src/dispcolor.c **** 			j--;	// Opaqueness reset so drop down a row
 3072              		.loc 1 443 3 is_stmt 1 view .LVU797
 443:Core/Src/dispcolor.c **** 			j--;	// Opaqueness reset so drop down a row
 3073              		.loc 1 443 6 is_stmt 0 view .LVU798
 3074 01d2 F4EEC88A 		vcmpe.f32	s17, s16
 3075 01d6 F1EE10FA 		vmrs	APSR_nzcv, FPSCR
 3076 01da 7FF71FAF 		ble	.L156
 444:Core/Src/dispcolor.c **** 
 3077              		.loc 1 444 4 is_stmt 1 view .LVU799
 444:Core/Src/dispcolor.c **** 
 3078              		.loc 1 444 5 is_stmt 0 view .LVU800
 3079 01de 009B     		ldr	r3, [sp]
 3080 01e0 013B     		subs	r3, r3, #1
 3081 01e2 1BB2     		sxth	r3, r3
 3082 01e4 0093     		str	r3, [sp]
 3083              	.LVL351:
 444:Core/Src/dispcolor.c **** 
 3084              		.loc 1 444 5 view .LVU801
 3085 01e6 19E7     		b	.L156
 3086              	.LVL352:
 3087              	.L161:
ARM GAS  C:\Users\kroko\AppData\Local\Temp\ccNEdXH2.s 			page 77


 444:Core/Src/dispcolor.c **** 
 3088              		.loc 1 444 5 view .LVU802
 3089              	.LBE14:
 475:Core/Src/dispcolor.c **** 
 3090              		.loc 1 475 1 view .LVU803
 3091 01e8 09B0     		add	sp, sp, #36
 3092              		.cfi_def_cfa_offset 44
 3093              	.LVL353:
 475:Core/Src/dispcolor.c **** 
 3094              		.loc 1 475 1 view .LVU804
 3095              		@ sp needed
 3096 01ea BDEC028B 		vldm	sp!, {d8}
 3097              		.cfi_restore 80
 3098              		.cfi_restore 81
 3099              		.cfi_def_cfa_offset 36
 3100 01ee BDE8F08F 		pop	{r4, r5, r6, r7, r8, r9, r10, fp, pc}
 3101              	.LVL354:
 3102              	.L163:
 475:Core/Src/dispcolor.c **** 
 3103              		.loc 1 475 1 view .LVU805
 3104 01f2 00BFAFF3 		.align	3
 3104      0080
 3105              	.L162:
 3106 01f8 00000000 		.word	0
 3107 01fc 00000000 		.word	0
 3108 0200 00000000 		.word	0
 3109              		.cfi_endproc
 3110              	.LFE28:
 3112              		.section	.text.dispcolor_FillCircle,"ax",%progbits
 3113              		.align	1
 3114              		.global	dispcolor_FillCircle
 3115              		.syntax unified
 3116              		.thumb
 3117              		.thumb_func
 3119              	dispcolor_FillCircle:
 3120              	.LVL355:
 3121              	.LFB29:
 478:Core/Src/dispcolor.c **** 	int x = 0;
 3122              		.loc 1 478 19 is_stmt 1 view -0
 3123              		.cfi_startproc
 3124              		@ args = 0, pretend = 0, frame = 8
 3125              		@ frame_needed = 0, uses_anonymous_args = 0
 478:Core/Src/dispcolor.c **** 	int x = 0;
 3126              		.loc 1 478 19 is_stmt 0 view .LVU807
 3127 0000 2DE9F04F 		push	{r4, r5, r6, r7, r8, r9, r10, fp, lr}
 3128              		.cfi_def_cfa_offset 36
 3129              		.cfi_offset 4, -36
 3130              		.cfi_offset 5, -32
 3131              		.cfi_offset 6, -28
 3132              		.cfi_offset 7, -24
 3133              		.cfi_offset 8, -20
 3134              		.cfi_offset 9, -16
 3135              		.cfi_offset 10, -12
 3136              		.cfi_offset 11, -8
 3137              		.cfi_offset 14, -4
 3138 0004 85B0     		sub	sp, sp, #20
 3139              		.cfi_def_cfa_offset 56
ARM GAS  C:\Users\kroko\AppData\Local\Temp\ccNEdXH2.s 			page 78


 3140 0006 0290     		str	r0, [sp, #8]
 3141 0008 0391     		str	r1, [sp, #12]
 3142 000a 9B46     		mov	fp, r3
 479:Core/Src/dispcolor.c **** 	int y = radius;
 3143              		.loc 1 479 2 is_stmt 1 view .LVU808
 3144              	.LVL356:
 480:Core/Src/dispcolor.c **** 	int delta = 1 - 2 * radius;
 3145              		.loc 1 480 2 view .LVU809
 480:Core/Src/dispcolor.c **** 	int delta = 1 - 2 * radius;
 3146              		.loc 1 480 6 is_stmt 0 view .LVU810
 3147 000c 1746     		mov	r7, r2
 3148              	.LVL357:
 481:Core/Src/dispcolor.c **** 	int error = 0;
 3149              		.loc 1 481 2 is_stmt 1 view .LVU811
 481:Core/Src/dispcolor.c **** 	int error = 0;
 3150              		.loc 1 481 20 is_stmt 0 view .LVU812
 3151 000e 5200     		lsls	r2, r2, #1
 3152              	.LVL358:
 481:Core/Src/dispcolor.c **** 	int error = 0;
 3153              		.loc 1 481 6 view .LVU813
 3154 0010 C2F10106 		rsb	r6, r2, #1
 3155              	.LVL359:
 482:Core/Src/dispcolor.c **** 
 3156              		.loc 1 482 2 is_stmt 1 view .LVU814
 484:Core/Src/dispcolor.c **** 		dispcolor_DrawLine(x0 + x, y0 - y, x0 + x, y0 + y, color);
 3157              		.loc 1 484 2 view .LVU815
 479:Core/Src/dispcolor.c **** 	int y = radius;
 3158              		.loc 1 479 6 is_stmt 0 view .LVU816
 3159 0014 4FF0000A 		mov	r10, #0
 484:Core/Src/dispcolor.c **** 		dispcolor_DrawLine(x0 + x, y0 - y, x0 + x, y0 + y, color);
 3160              		.loc 1 484 8 view .LVU817
 3161 0018 0FE0     		b	.L165
 3162              	.LVL360:
 3163              	.L172:
 489:Core/Src/dispcolor.c **** 			++x;
 3164              		.loc 1 489 17 discriminator 1 view .LVU818
 3165 001a 012B     		cmp	r3, #1
 3166 001c 34DC     		bgt	.L166
 490:Core/Src/dispcolor.c **** 			delta += 2 * x + 1;
 3167              		.loc 1 490 4 is_stmt 1 view .LVU819
 3168 001e 0AF1010A 		add	r10, r10, #1
 3169              	.LVL361:
 491:Core/Src/dispcolor.c **** 			continue;
 3170              		.loc 1 491 4 view .LVU820
 491:Core/Src/dispcolor.c **** 			continue;
 3171              		.loc 1 491 15 is_stmt 0 view .LVU821
 3172 0022 4FEA4A03 		lsl	r3, r10, #1
 3173              	.LVL362:
 491:Core/Src/dispcolor.c **** 			continue;
 3174              		.loc 1 491 19 view .LVU822
 3175 0026 0133     		adds	r3, r3, #1
 491:Core/Src/dispcolor.c **** 			continue;
 3176              		.loc 1 491 10 view .LVU823
 3177 0028 1E44     		add	r6, r6, r3
 3178              	.LVL363:
 492:Core/Src/dispcolor.c **** 		}
 3179              		.loc 1 492 4 is_stmt 1 view .LVU824
ARM GAS  C:\Users\kroko\AppData\Local\Temp\ccNEdXH2.s 			page 79


 3180 002a 06E0     		b	.L165
 3181              	.LVL364:
 3182              	.L168:
 503:Core/Src/dispcolor.c **** 		delta += 2 * (x - y);
 3183              		.loc 1 503 3 view .LVU825
 3184 002c 0AF1010A 		add	r10, r10, #1
 3185              	.LVL365:
 504:Core/Src/dispcolor.c **** 		--y;
 3186              		.loc 1 504 3 view .LVU826
 504:Core/Src/dispcolor.c **** 		--y;
 3187              		.loc 1 504 19 is_stmt 0 view .LVU827
 3188 0030 AAEB0703 		sub	r3, r10, r7
 3189              	.LVL366:
 504:Core/Src/dispcolor.c **** 		--y;
 3190              		.loc 1 504 9 view .LVU828
 3191 0034 06EB4306 		add	r6, r6, r3, lsl #1
 3192              	.LVL367:
 505:Core/Src/dispcolor.c **** 	}
 3193              		.loc 1 505 3 is_stmt 1 view .LVU829
 3194 0038 013F     		subs	r7, r7, #1
 3195              	.LVL368:
 3196              	.L165:
 484:Core/Src/dispcolor.c **** 		dispcolor_DrawLine(x0 + x, y0 - y, x0 + x, y0 + y, color);
 3197              		.loc 1 484 11 view .LVU830
 3198 003a 002F     		cmp	r7, #0
 3199 003c 31DB     		blt	.L171
 485:Core/Src/dispcolor.c **** 		dispcolor_DrawLine(x0 - x, y0 - y, x0 - x, y0 + y, color);
 3200              		.loc 1 485 3 view .LVU831
 485:Core/Src/dispcolor.c **** 		dispcolor_DrawLine(x0 - x, y0 - y, x0 - x, y0 + y, color);
 3201              		.loc 1 485 25 is_stmt 0 view .LVU832
 3202 003e 1FFA8AF9 		uxth	r9, r10
 3203 0042 BDF80850 		ldrh	r5, [sp, #8]
 3204 0046 09EB0500 		add	r0, r9, r5
 485:Core/Src/dispcolor.c **** 		dispcolor_DrawLine(x0 - x, y0 - y, x0 - x, y0 + y, color);
 3205              		.loc 1 485 3 view .LVU833
 3206 004a 00B2     		sxth	r0, r0
 485:Core/Src/dispcolor.c **** 		dispcolor_DrawLine(x0 - x, y0 - y, x0 - x, y0 + y, color);
 3207              		.loc 1 485 33 view .LVU834
 3208 004c BDF80C40 		ldrh	r4, [sp, #12]
 3209 0050 BBB2     		uxth	r3, r7
 3210 0052 A4EB0308 		sub	r8, r4, r3
 485:Core/Src/dispcolor.c **** 		dispcolor_DrawLine(x0 - x, y0 - y, x0 - x, y0 + y, color);
 3211              		.loc 1 485 3 view .LVU835
 3212 0056 0FFA88F8 		sxth	r8, r8
 485:Core/Src/dispcolor.c **** 		dispcolor_DrawLine(x0 - x, y0 - y, x0 - x, y0 + y, color);
 3213              		.loc 1 485 49 view .LVU836
 3214 005a 1C44     		add	r4, r4, r3
 485:Core/Src/dispcolor.c **** 		dispcolor_DrawLine(x0 - x, y0 - y, x0 - x, y0 + y, color);
 3215              		.loc 1 485 3 view .LVU837
 3216 005c 24B2     		sxth	r4, r4
 3217 005e CDF800B0 		str	fp, [sp]
 3218 0062 2346     		mov	r3, r4
 3219 0064 0246     		mov	r2, r0
 3220 0066 4146     		mov	r1, r8
 3221 0068 FFF7FEFF 		bl	dispcolor_DrawLine
 3222              	.LVL369:
 486:Core/Src/dispcolor.c **** 		error = 2 * (delta + y) - 1;
ARM GAS  C:\Users\kroko\AppData\Local\Temp\ccNEdXH2.s 			page 80


 3223              		.loc 1 486 3 is_stmt 1 view .LVU838
 486:Core/Src/dispcolor.c **** 		error = 2 * (delta + y) - 1;
 3224              		.loc 1 486 25 is_stmt 0 view .LVU839
 3225 006c A5EB0900 		sub	r0, r5, r9
 486:Core/Src/dispcolor.c **** 		error = 2 * (delta + y) - 1;
 3226              		.loc 1 486 3 view .LVU840
 3227 0070 00B2     		sxth	r0, r0
 3228 0072 CDF800B0 		str	fp, [sp]
 3229 0076 2346     		mov	r3, r4
 3230 0078 0246     		mov	r2, r0
 3231 007a 4146     		mov	r1, r8
 3232 007c FFF7FEFF 		bl	dispcolor_DrawLine
 3233              	.LVL370:
 487:Core/Src/dispcolor.c **** 
 3234              		.loc 1 487 3 is_stmt 1 view .LVU841
 487:Core/Src/dispcolor.c **** 
 3235              		.loc 1 487 22 is_stmt 0 view .LVU842
 3236 0080 BB19     		adds	r3, r7, r6
 487:Core/Src/dispcolor.c **** 
 3237              		.loc 1 487 13 view .LVU843
 3238 0082 5B00     		lsls	r3, r3, #1
 3239              	.LVL371:
 489:Core/Src/dispcolor.c **** 			++x;
 3240              		.loc 1 489 3 is_stmt 1 view .LVU844
 489:Core/Src/dispcolor.c **** 			++x;
 3241              		.loc 1 489 6 is_stmt 0 view .LVU845
 3242 0084 002E     		cmp	r6, #0
 3243 0086 C8DB     		blt	.L172
 3244              	.L166:
 495:Core/Src/dispcolor.c **** 
 3245              		.loc 1 495 3 is_stmt 1 view .LVU846
 495:Core/Src/dispcolor.c **** 
 3246              		.loc 1 495 22 is_stmt 0 view .LVU847
 3247 0088 A6EB0A03 		sub	r3, r6, r10
 3248              	.LVL372:
 495:Core/Src/dispcolor.c **** 
 3249              		.loc 1 495 13 view .LVU848
 3250 008c 5B00     		lsls	r3, r3, #1
 3251              	.LVL373:
 497:Core/Src/dispcolor.c **** 			--y;
 3252              		.loc 1 497 3 is_stmt 1 view .LVU849
 497:Core/Src/dispcolor.c **** 			--y;
 3253              		.loc 1 497 6 is_stmt 0 view .LVU850
 3254 008e 002E     		cmp	r6, #0
 3255 0090 CCDD     		ble	.L168
 497:Core/Src/dispcolor.c **** 			--y;
 3256              		.loc 1 497 17 discriminator 1 view .LVU851
 3257 0092 012B     		cmp	r3, #1
 3258 0094 CADD     		ble	.L168
 498:Core/Src/dispcolor.c **** 			delta += 1 - 2 * y;
 3259              		.loc 1 498 4 is_stmt 1 view .LVU852
 3260 0096 013F     		subs	r7, r7, #1
 3261              	.LVL374:
 499:Core/Src/dispcolor.c **** 			continue;
 3262              		.loc 1 499 4 view .LVU853
 499:Core/Src/dispcolor.c **** 			continue;
 3263              		.loc 1 499 19 is_stmt 0 view .LVU854
ARM GAS  C:\Users\kroko\AppData\Local\Temp\ccNEdXH2.s 			page 81


 3264 0098 7B00     		lsls	r3, r7, #1
 3265              	.LVL375:
 499:Core/Src/dispcolor.c **** 			continue;
 3266              		.loc 1 499 15 view .LVU855
 3267 009a C3F10103 		rsb	r3, r3, #1
 499:Core/Src/dispcolor.c **** 			continue;
 3268              		.loc 1 499 10 view .LVU856
 3269 009e 1E44     		add	r6, r6, r3
 3270              	.LVL376:
 500:Core/Src/dispcolor.c **** 		}
 3271              		.loc 1 500 4 is_stmt 1 view .LVU857
 3272 00a0 CBE7     		b	.L165
 3273              	.LVL377:
 3274              	.L171:
 507:Core/Src/dispcolor.c **** 
 3275              		.loc 1 507 1 is_stmt 0 view .LVU858
 3276 00a2 05B0     		add	sp, sp, #20
 3277              		.cfi_def_cfa_offset 36
 3278              		@ sp needed
 3279 00a4 BDE8F08F 		pop	{r4, r5, r6, r7, r8, r9, r10, fp, pc}
 507:Core/Src/dispcolor.c **** 
 3280              		.loc 1 507 1 view .LVU859
 3281              		.cfi_endproc
 3282              	.LFE29:
 3284              		.section	.text.dispcolor_DrawLine2,"ax",%progbits
 3285              		.align	1
 3286              		.global	dispcolor_DrawLine2
 3287              		.syntax unified
 3288              		.thumb
 3289              		.thumb_func
 3291              	dispcolor_DrawLine2:
 3292              	.LVL378:
 3293              	.LFB14:
 133:Core/Src/dispcolor.c **** 	const int16_t deltaX = abs(x2 - x1);
 3294              		.loc 1 133 34 is_stmt 1 view -0
 3295              		.cfi_startproc
 3296              		@ args = 8, pretend = 0, frame = 24
 3297              		@ frame_needed = 0, uses_anonymous_args = 0
 133:Core/Src/dispcolor.c **** 	const int16_t deltaX = abs(x2 - x1);
 3298              		.loc 1 133 34 is_stmt 0 view .LVU861
 3299 0000 2DE9F04F 		push	{r4, r5, r6, r7, r8, r9, r10, fp, lr}
 3300              		.cfi_def_cfa_offset 36
 3301              		.cfi_offset 4, -36
 3302              		.cfi_offset 5, -32
 3303              		.cfi_offset 6, -28
 3304              		.cfi_offset 7, -24
 3305              		.cfi_offset 8, -20
 3306              		.cfi_offset 9, -16
 3307              		.cfi_offset 10, -12
 3308              		.cfi_offset 11, -8
 3309              		.cfi_offset 14, -4
 3310 0004 87B0     		sub	sp, sp, #28
 3311              		.cfi_def_cfa_offset 64
 3312 0006 0546     		mov	r5, r0
 3313 0008 0E46     		mov	r6, r1
 3314 000a 9046     		mov	r8, r2
 3315 000c 0593     		str	r3, [sp, #20]
ARM GAS  C:\Users\kroko\AppData\Local\Temp\ccNEdXH2.s 			page 82


 3316 000e BDF84090 		ldrh	r9, [sp, #64]
 3317 0012 9DF84470 		ldrb	r7, [sp, #68]	@ zero_extendqisi2
 134:Core/Src/dispcolor.c **** 	const int16_t deltaY = abs(y2 - y1);
 3318              		.loc 1 134 2 is_stmt 1 view .LVU862
 134:Core/Src/dispcolor.c **** 	const int16_t deltaY = abs(y2 - y1);
 3319              		.loc 1 134 32 is_stmt 0 view .LVU863
 3320 0016 121A     		subs	r2, r2, r0
 3321              	.LVL379:
 134:Core/Src/dispcolor.c **** 	const int16_t deltaY = abs(y2 - y1);
 3322              		.loc 1 134 25 view .LVU864
 3323 0018 002A     		cmp	r2, #0
 3324 001a B8BF     		it	lt
 3325 001c 5242     		rsblt	r2, r2, #0
 134:Core/Src/dispcolor.c **** 	const int16_t deltaY = abs(y2 - y1);
 3326              		.loc 1 134 16 view .LVU865
 3327 001e 0FFA82FA 		sxth	r10, r2
 3328              	.LVL380:
 135:Core/Src/dispcolor.c **** 	const int16_t signX = x1 < x2 ? 1 : -1;
 3329              		.loc 1 135 2 is_stmt 1 view .LVU866
 135:Core/Src/dispcolor.c **** 	const int16_t signX = x1 < x2 ? 1 : -1;
 3330              		.loc 1 135 32 is_stmt 0 view .LVU867
 3331 0022 5B1A     		subs	r3, r3, r1
 3332              	.LVL381:
 135:Core/Src/dispcolor.c **** 	const int16_t signX = x1 < x2 ? 1 : -1;
 3333              		.loc 1 135 25 view .LVU868
 3334 0024 002B     		cmp	r3, #0
 3335 0026 B8BF     		it	lt
 3336 0028 5B42     		rsblt	r3, r3, #0
 135:Core/Src/dispcolor.c **** 	const int16_t signX = x1 < x2 ? 1 : -1;
 3337              		.loc 1 135 16 view .LVU869
 3338 002a 0FFA83FB 		sxth	fp, r3
 3339              	.LVL382:
 136:Core/Src/dispcolor.c **** 	const int16_t signY = y1 < y2 ? 1 : -1;
 3340              		.loc 1 136 2 is_stmt 1 view .LVU870
 136:Core/Src/dispcolor.c **** 	const int16_t signY = y1 < y2 ? 1 : -1;
 3341              		.loc 1 136 16 is_stmt 0 view .LVU871
 3342 002e 8045     		cmp	r8, r0
 3343 0030 34DD     		ble	.L184
 136:Core/Src/dispcolor.c **** 	const int16_t signY = y1 < y2 ? 1 : -1;
 3344              		.loc 1 136 16 discriminator 1 view .LVU872
 3345 0032 0121     		movs	r1, #1
 3346              	.LVL383:
 136:Core/Src/dispcolor.c **** 	const int16_t signY = y1 < y2 ? 1 : -1;
 3347              		.loc 1 136 16 discriminator 1 view .LVU873
 3348 0034 0391     		str	r1, [sp, #12]
 3349              	.L174:
 3350              	.LVL384:
 137:Core/Src/dispcolor.c **** 
 3351              		.loc 1 137 2 is_stmt 1 view .LVU874
 137:Core/Src/dispcolor.c **** 
 3352              		.loc 1 137 16 is_stmt 0 view .LVU875
 3353 0036 0599     		ldr	r1, [sp, #20]
 3354 0038 B142     		cmp	r1, r6
 3355 003a 33DD     		ble	.L185
 137:Core/Src/dispcolor.c **** 
 3356              		.loc 1 137 16 discriminator 1 view .LVU876
 3357 003c 0121     		movs	r1, #1
ARM GAS  C:\Users\kroko\AppData\Local\Temp\ccNEdXH2.s 			page 83


 3358 003e 0491     		str	r1, [sp, #16]
 3359              	.L175:
 3360              	.LVL385:
 139:Core/Src/dispcolor.c **** 
 3361              		.loc 1 139 2 is_stmt 1 view .LVU877
 139:Core/Src/dispcolor.c **** 
 3362              		.loc 1 139 25 is_stmt 0 view .LVU878
 3363 0040 92B2     		uxth	r2, r2
 3364 0042 0192     		str	r2, [sp, #4]
 3365 0044 9BB2     		uxth	r3, r3
 3366 0046 0293     		str	r3, [sp, #8]
 3367 0048 D41A     		subs	r4, r2, r3
 139:Core/Src/dispcolor.c **** 
 3368              		.loc 1 139 10 view .LVU879
 3369 004a 24B2     		sxth	r4, r4
 3370              	.LVL386:
 141:Core/Src/dispcolor.c **** 		dispcolor_FillCircle(x2, y2, thick >> 1, color);
 3371              		.loc 1 141 2 is_stmt 1 view .LVU880
 141:Core/Src/dispcolor.c **** 		dispcolor_FillCircle(x2, y2, thick >> 1, color);
 3372              		.loc 1 141 5 is_stmt 0 view .LVU881
 3373 004c 012F     		cmp	r7, #1
 3374 004e 2DD9     		bls	.L176
 142:Core/Src/dispcolor.c **** 	else
 3375              		.loc 1 142 3 is_stmt 1 view .LVU882
 3376 0050 4B46     		mov	r3, r9
 3377 0052 7A08     		lsrs	r2, r7, #1
 3378 0054 0599     		ldr	r1, [sp, #20]
 3379 0056 4046     		mov	r0, r8
 3380              	.LVL387:
 142:Core/Src/dispcolor.c **** 	else
 3381              		.loc 1 142 3 is_stmt 0 view .LVU883
 3382 0058 FFF7FEFF 		bl	dispcolor_FillCircle
 3383              	.LVL388:
 3384              	.L178:
 146:Core/Src/dispcolor.c **** 		if (thick > 1)
 3385              		.loc 1 146 18 is_stmt 1 view .LVU884
 3386 005c 4545     		cmp	r5, r8
 3387 005e 31D0     		beq	.L187
 3388              	.L183:
 3389              	.LBB15:
 147:Core/Src/dispcolor.c **** 			dispcolor_FillCircle(x1, y1, thick >> 1, color);
 3390              		.loc 1 147 3 view .LVU885
 147:Core/Src/dispcolor.c **** 			dispcolor_FillCircle(x1, y1, thick >> 1, color);
 3391              		.loc 1 147 6 is_stmt 0 view .LVU886
 3392 0060 012F     		cmp	r7, #1
 3393 0062 29D9     		bls	.L179
 148:Core/Src/dispcolor.c **** 		else
 3394              		.loc 1 148 4 is_stmt 1 view .LVU887
 3395 0064 4B46     		mov	r3, r9
 3396 0066 7A08     		lsrs	r2, r7, #1
 3397 0068 3146     		mov	r1, r6
 3398 006a 2846     		mov	r0, r5
 3399 006c FFF7FEFF 		bl	dispcolor_FillCircle
 3400              	.LVL389:
 3401              	.L180:
 152:Core/Src/dispcolor.c **** 		if (error2 > -deltaY) {
 3402              		.loc 1 152 3 view .LVU888
ARM GAS  C:\Users\kroko\AppData\Local\Temp\ccNEdXH2.s 			page 84


 152:Core/Src/dispcolor.c **** 		if (error2 > -deltaY) {
 3403              		.loc 1 152 32 is_stmt 0 view .LVU889
 3404 0070 A2B2     		uxth	r2, r4
 3405 0072 5300     		lsls	r3, r2, #1
 152:Core/Src/dispcolor.c **** 		if (error2 > -deltaY) {
 3406              		.loc 1 152 17 view .LVU890
 3407 0074 1BB2     		sxth	r3, r3
 3408              	.LVL390:
 153:Core/Src/dispcolor.c **** 			error -= deltaY;
 3409              		.loc 1 153 3 is_stmt 1 view .LVU891
 153:Core/Src/dispcolor.c **** 			error -= deltaY;
 3410              		.loc 1 153 16 is_stmt 0 view .LVU892
 3411 0076 CBF10001 		rsb	r1, fp, #0
 153:Core/Src/dispcolor.c **** 			error -= deltaY;
 3412              		.loc 1 153 6 view .LVU893
 3413 007a 8B42     		cmp	r3, r1
 3414 007c 05DD     		ble	.L181
 154:Core/Src/dispcolor.c **** 			x1 += signX;
 3415              		.loc 1 154 4 is_stmt 1 view .LVU894
 154:Core/Src/dispcolor.c **** 			x1 += signX;
 3416              		.loc 1 154 10 is_stmt 0 view .LVU895
 3417 007e 0299     		ldr	r1, [sp, #8]
 3418 0080 521A     		subs	r2, r2, r1
 3419 0082 14B2     		sxth	r4, r2
 3420              	.LVL391:
 155:Core/Src/dispcolor.c **** 		}
 3421              		.loc 1 155 4 is_stmt 1 view .LVU896
 155:Core/Src/dispcolor.c **** 		}
 3422              		.loc 1 155 7 is_stmt 0 view .LVU897
 3423 0084 039A     		ldr	r2, [sp, #12]
 3424 0086 1544     		add	r5, r5, r2
 3425              	.LVL392:
 155:Core/Src/dispcolor.c **** 		}
 3426              		.loc 1 155 7 view .LVU898
 3427 0088 2DB2     		sxth	r5, r5
 3428              	.LVL393:
 3429              	.L181:
 157:Core/Src/dispcolor.c **** 			error += deltaX;
 3430              		.loc 1 157 3 is_stmt 1 view .LVU899
 157:Core/Src/dispcolor.c **** 			error += deltaX;
 3431              		.loc 1 157 6 is_stmt 0 view .LVU900
 3432 008a 9A45     		cmp	r10, r3
 3433 008c E6DD     		ble	.L178
 158:Core/Src/dispcolor.c **** 			y1 += signY;
 3434              		.loc 1 158 4 is_stmt 1 view .LVU901
 158:Core/Src/dispcolor.c **** 			y1 += signY;
 3435              		.loc 1 158 10 is_stmt 0 view .LVU902
 3436 008e 019B     		ldr	r3, [sp, #4]
 3437              	.LVL394:
 158:Core/Src/dispcolor.c **** 			y1 += signY;
 3438              		.loc 1 158 10 view .LVU903
 3439 0090 1C44     		add	r4, r4, r3
 3440              	.LVL395:
 158:Core/Src/dispcolor.c **** 			y1 += signY;
 3441              		.loc 1 158 10 view .LVU904
 3442 0092 24B2     		sxth	r4, r4
 3443              	.LVL396:
ARM GAS  C:\Users\kroko\AppData\Local\Temp\ccNEdXH2.s 			page 85


 159:Core/Src/dispcolor.c **** 		}
 3444              		.loc 1 159 4 is_stmt 1 view .LVU905
 159:Core/Src/dispcolor.c **** 		}
 3445              		.loc 1 159 7 is_stmt 0 view .LVU906
 3446 0094 049B     		ldr	r3, [sp, #16]
 3447 0096 1E44     		add	r6, r6, r3
 3448              	.LVL397:
 159:Core/Src/dispcolor.c **** 		}
 3449              		.loc 1 159 7 view .LVU907
 3450 0098 36B2     		sxth	r6, r6
 3451              	.LVL398:
 159:Core/Src/dispcolor.c **** 		}
 3452              		.loc 1 159 7 view .LVU908
 3453 009a DFE7     		b	.L178
 3454              	.LVL399:
 3455              	.L184:
 159:Core/Src/dispcolor.c **** 		}
 3456              		.loc 1 159 7 view .LVU909
 3457              	.LBE15:
 136:Core/Src/dispcolor.c **** 	const int16_t signY = y1 < y2 ? 1 : -1;
 3458              		.loc 1 136 16 discriminator 2 view .LVU910
 3459 009c 4FF0FF31 		mov	r1, #-1
 3460              	.LVL400:
 136:Core/Src/dispcolor.c **** 	const int16_t signY = y1 < y2 ? 1 : -1;
 3461              		.loc 1 136 16 discriminator 2 view .LVU911
 3462 00a0 0391     		str	r1, [sp, #12]
 3463 00a2 C8E7     		b	.L174
 3464              	.LVL401:
 3465              	.L185:
 137:Core/Src/dispcolor.c **** 
 3466              		.loc 1 137 16 discriminator 2 view .LVU912
 3467 00a4 4FF0FF31 		mov	r1, #-1
 3468 00a8 0491     		str	r1, [sp, #16]
 3469 00aa C9E7     		b	.L175
 3470              	.LVL402:
 3471              	.L176:
 144:Core/Src/dispcolor.c **** 
 3472              		.loc 1 144 3 is_stmt 1 view .LVU913
 3473 00ac 4A46     		mov	r2, r9
 3474 00ae 0599     		ldr	r1, [sp, #20]
 3475 00b0 4046     		mov	r0, r8
 3476              	.LVL403:
 144:Core/Src/dispcolor.c **** 
 3477              		.loc 1 144 3 is_stmt 0 view .LVU914
 3478 00b2 FFF7FEFF 		bl	dispcolor_DrawPixel
 3479              	.LVL404:
 3480 00b6 D1E7     		b	.L178
 3481              	.L179:
 3482              	.LBB16:
 150:Core/Src/dispcolor.c **** 
 3483              		.loc 1 150 4 is_stmt 1 view .LVU915
 3484 00b8 4A46     		mov	r2, r9
 3485 00ba 3146     		mov	r1, r6
 3486 00bc 2846     		mov	r0, r5
 3487 00be FFF7FEFF 		bl	dispcolor_DrawPixel
 3488              	.LVL405:
 3489 00c2 D5E7     		b	.L180
ARM GAS  C:\Users\kroko\AppData\Local\Temp\ccNEdXH2.s 			page 86


 3490              	.L187:
 3491              	.LBE16:
 146:Core/Src/dispcolor.c **** 		if (thick > 1)
 3492              		.loc 1 146 18 is_stmt 0 discriminator 1 view .LVU916
 3493 00c4 059B     		ldr	r3, [sp, #20]
 3494 00c6 9E42     		cmp	r6, r3
 3495 00c8 CAD1     		bne	.L183
 162:Core/Src/dispcolor.c **** 
 3496              		.loc 1 162 1 view .LVU917
 3497 00ca 07B0     		add	sp, sp, #28
 3498              		.cfi_def_cfa_offset 36
 3499              		@ sp needed
 3500 00cc BDE8F08F 		pop	{r4, r5, r6, r7, r8, r9, r10, fp, pc}
 162:Core/Src/dispcolor.c **** 
 3501              		.loc 1 162 1 view .LVU918
 3502              		.cfi_endproc
 3503              	.LFE14:
 3505              		.section	.text.dispcolor_FillCircleWu,"ax",%progbits
 3506              		.align	1
 3507              		.global	dispcolor_FillCircleWu
 3508              		.syntax unified
 3509              		.thumb
 3510              		.thumb_func
 3512              	dispcolor_FillCircleWu:
 3513              	.LVL406:
 3514              	.LFB30:
 510:Core/Src/dispcolor.c **** 	if (radius > 1)
 3515              		.loc 1 510 19 is_stmt 1 view -0
 3516              		.cfi_startproc
 3517              		@ args = 0, pretend = 0, frame = 0
 3518              		@ frame_needed = 0, uses_anonymous_args = 0
 510:Core/Src/dispcolor.c **** 	if (radius > 1)
 3519              		.loc 1 510 19 is_stmt 0 view .LVU920
 3520 0000 F8B5     		push	{r3, r4, r5, r6, r7, lr}
 3521              		.cfi_def_cfa_offset 24
 3522              		.cfi_offset 3, -24
 3523              		.cfi_offset 4, -20
 3524              		.cfi_offset 5, -16
 3525              		.cfi_offset 6, -12
 3526              		.cfi_offset 7, -8
 3527              		.cfi_offset 14, -4
 3528 0002 0546     		mov	r5, r0
 3529 0004 0E46     		mov	r6, r1
 3530 0006 1446     		mov	r4, r2
 3531 0008 1F46     		mov	r7, r3
 511:Core/Src/dispcolor.c **** 		dispcolor_FillCircle(x0, y0, radius - 1, color);
 3532              		.loc 1 511 2 is_stmt 1 view .LVU921
 511:Core/Src/dispcolor.c **** 		dispcolor_FillCircle(x0, y0, radius - 1, color);
 3533              		.loc 1 511 5 is_stmt 0 view .LVU922
 3534 000a 012A     		cmp	r2, #1
 3535 000c 06DC     		bgt	.L191
 3536              	.LVL407:
 3537              	.L189:
 513:Core/Src/dispcolor.c **** }
 3538              		.loc 1 513 2 is_stmt 1 view .LVU923
 3539 000e 3B46     		mov	r3, r7
 3540 0010 2246     		mov	r2, r4
ARM GAS  C:\Users\kroko\AppData\Local\Temp\ccNEdXH2.s 			page 87


 3541 0012 3146     		mov	r1, r6
 3542 0014 2846     		mov	r0, r5
 3543 0016 FFF7FEFF 		bl	dispcolor_DrawCircle_Wu
 3544              	.LVL408:
 514:Core/Src/dispcolor.c **** 
 3545              		.loc 1 514 1 is_stmt 0 view .LVU924
 3546 001a F8BD     		pop	{r3, r4, r5, r6, r7, pc}
 3547              	.LVL409:
 3548              	.L191:
 512:Core/Src/dispcolor.c **** 	dispcolor_DrawCircle_Wu(x0, y0, radius, color);
 3549              		.loc 1 512 3 is_stmt 1 view .LVU925
 512:Core/Src/dispcolor.c **** 	dispcolor_DrawCircle_Wu(x0, y0, radius, color);
 3550              		.loc 1 512 39 is_stmt 0 view .LVU926
 3551 001c 013A     		subs	r2, r2, #1
 3552              	.LVL410:
 512:Core/Src/dispcolor.c **** 	dispcolor_DrawCircle_Wu(x0, y0, radius, color);
 3553              		.loc 1 512 3 view .LVU927
 3554 001e 12B2     		sxth	r2, r2
 3555 0020 FFF7FEFF 		bl	dispcolor_FillCircle
 3556              	.LVL411:
 512:Core/Src/dispcolor.c **** 	dispcolor_DrawCircle_Wu(x0, y0, radius, color);
 3557              		.loc 1 512 3 view .LVU928
 3558 0024 F3E7     		b	.L189
 3559              		.cfi_endproc
 3560              	.LFE30:
 3562              		.global	__aeabi_dmul
 3563              		.global	__aeabi_ddiv
 3564              		.global	__aeabi_d2iz
 3565              		.section	.text.dispcolor_DrawArc,"ax",%progbits
 3566              		.align	1
 3567              		.global	dispcolor_DrawArc
 3568              		.syntax unified
 3569              		.thumb
 3570              		.thumb_func
 3572              	dispcolor_DrawArc:
 3573              	.LVL412:
 3574              	.LFB31:
 517:Core/Src/dispcolor.c **** 	int16_t xLast = -1, yLast = -1;
 3575              		.loc 1 517 72 is_stmt 1 view -0
 3576              		.cfi_startproc
 3577              		@ args = 12, pretend = 0, frame = 24
 3578              		@ frame_needed = 0, uses_anonymous_args = 0
 517:Core/Src/dispcolor.c **** 	int16_t xLast = -1, yLast = -1;
 3579              		.loc 1 517 72 is_stmt 0 view .LVU930
 3580 0000 2DE9F04F 		push	{r4, r5, r6, r7, r8, r9, r10, fp, lr}
 3581              		.cfi_def_cfa_offset 36
 3582              		.cfi_offset 4, -36
 3583              		.cfi_offset 5, -32
 3584              		.cfi_offset 6, -28
 3585              		.cfi_offset 7, -24
 3586              		.cfi_offset 8, -20
 3587              		.cfi_offset 9, -16
 3588              		.cfi_offset 10, -12
 3589              		.cfi_offset 11, -8
 3590              		.cfi_offset 14, -4
 3591 0004 2DED028B 		vpush.64	{d8}
 3592              		.cfi_def_cfa_offset 44
ARM GAS  C:\Users\kroko\AppData\Local\Temp\ccNEdXH2.s 			page 88


 3593              		.cfi_offset 80, -44
 3594              		.cfi_offset 81, -40
 3595 0008 89B0     		sub	sp, sp, #36
 3596              		.cfi_def_cfa_offset 80
 3597 000a 0390     		str	r0, [sp, #12]
 3598 000c 0491     		str	r1, [sp, #16]
 3599 000e 0592     		str	r2, [sp, #20]
 3600 0010 BDF85420 		ldrh	r2, [sp, #84]
 3601              	.LVL413:
 517:Core/Src/dispcolor.c **** 	int16_t xLast = -1, yLast = -1;
 3602              		.loc 1 517 72 view .LVU931
 3603 0014 0692     		str	r2, [sp, #24]
 3604 0016 9DF85820 		ldrb	r2, [sp, #88]	@ zero_extendqisi2
 3605 001a 0792     		str	r2, [sp, #28]
 518:Core/Src/dispcolor.c **** 	startAngle -= 90;
 3606              		.loc 1 518 2 is_stmt 1 view .LVU932
 3607              	.LVL414:
 519:Core/Src/dispcolor.c **** 	endAngle -= 90;
 3608              		.loc 1 519 2 view .LVU933
 519:Core/Src/dispcolor.c **** 	endAngle -= 90;
 3609              		.loc 1 519 13 is_stmt 0 view .LVU934
 3610 001c A3F15A04 		sub	r4, r3, #90
 3611 0020 24B2     		sxth	r4, r4
 3612              	.LVL415:
 520:Core/Src/dispcolor.c **** 
 3613              		.loc 1 520 2 is_stmt 1 view .LVU935
 520:Core/Src/dispcolor.c **** 
 3614              		.loc 1 520 11 is_stmt 0 view .LVU936
 3615 0022 BDF95030 		ldrsh	r3, [sp, #80]
 3616 0026 5A3B     		subs	r3, r3, #90
 3617 0028 0FFA83FB 		sxth	fp, r3
 3618              	.LVL416:
 522:Core/Src/dispcolor.c **** 		float angleRad = (float) angle * PI / 180;
 3619              		.loc 1 522 2 is_stmt 1 view .LVU937
 3620              	.LBB17:
 522:Core/Src/dispcolor.c **** 		float angleRad = (float) angle * PI / 180;
 3621              		.loc 1 522 7 view .LVU938
 522:Core/Src/dispcolor.c **** 		float angleRad = (float) angle * PI / 180;
 3622              		.loc 1 522 7 is_stmt 0 view .LVU939
 3623              	.LBE17:
 518:Core/Src/dispcolor.c **** 	startAngle -= 90;
 3624              		.loc 1 518 22 view .LVU940
 3625 002c 4FF0FF3A 		mov	r10, #-1
 518:Core/Src/dispcolor.c **** 	startAngle -= 90;
 3626              		.loc 1 518 10 view .LVU941
 3627 0030 5546     		mov	r5, r10
 3628              	.LBB20:
 522:Core/Src/dispcolor.c **** 		float angleRad = (float) angle * PI / 180;
 3629              		.loc 1 522 2 view .LVU942
 3630 0032 13E0     		b	.L193
 3631              	.LVL417:
 3632              	.L194:
 3633              	.LBB18:
 528:Core/Src/dispcolor.c **** 			yLast = y;
 3634              		.loc 1 528 4 is_stmt 1 view .LVU943
 528:Core/Src/dispcolor.c **** 			yLast = y;
 3635              		.loc 1 528 10 is_stmt 0 view .LVU944
ARM GAS  C:\Users\kroko\AppData\Local\Temp\ccNEdXH2.s 			page 89


 3636 0034 BDF90850 		ldrsh	r5, [sp, #8]
 3637              	.LVL418:
 529:Core/Src/dispcolor.c **** 			continue;
 3638              		.loc 1 529 4 is_stmt 1 view .LVU945
 529:Core/Src/dispcolor.c **** 			continue;
 3639              		.loc 1 529 10 is_stmt 0 view .LVU946
 3640 0038 0FFA86FA 		sxth	r10, r6
 3641              	.LVL419:
 530:Core/Src/dispcolor.c **** 		}
 3642              		.loc 1 530 4 is_stmt 1 view .LVU947
 3643 003c 0CE0     		b	.L196
 3644              	.L197:
 536:Core/Src/dispcolor.c **** 
 3645              		.loc 1 536 4 view .LVU948
 3646 003e 069B     		ldr	r3, [sp, #24]
 3647 0040 0093     		str	r3, [sp]
 3648 0042 03B2     		sxth	r3, r0
 3649 0044 BDF90820 		ldrsh	r2, [sp, #8]
 3650 0048 5146     		mov	r1, r10
 3651 004a 2846     		mov	r0, r5
 3652              	.LVL420:
 536:Core/Src/dispcolor.c **** 
 3653              		.loc 1 536 4 is_stmt 0 view .LVU949
 3654 004c FFF7FEFF 		bl	dispcolor_DrawLine
 3655              	.LVL421:
 3656              	.L198:
 538:Core/Src/dispcolor.c **** 		yLast = y;
 3657              		.loc 1 538 3 is_stmt 1 view .LVU950
 538:Core/Src/dispcolor.c **** 		yLast = y;
 3658              		.loc 1 538 9 is_stmt 0 view .LVU951
 3659 0050 BDF90850 		ldrsh	r5, [sp, #8]
 3660              	.LVL422:
 539:Core/Src/dispcolor.c **** 	}
 3661              		.loc 1 539 3 is_stmt 1 view .LVU952
 539:Core/Src/dispcolor.c **** 	}
 3662              		.loc 1 539 9 is_stmt 0 view .LVU953
 3663 0054 0FFA86FA 		sxth	r10, r6
 3664              	.LVL423:
 3665              	.L196:
 539:Core/Src/dispcolor.c **** 	}
 3666              		.loc 1 539 9 view .LVU954
 3667              	.LBE18:
 522:Core/Src/dispcolor.c **** 		float angleRad = (float) angle * PI / 180;
 3668              		.loc 1 522 60 is_stmt 1 discriminator 2 view .LVU955
 3669 0058 0234     		adds	r4, r4, #2
 3670              	.LVL424:
 522:Core/Src/dispcolor.c **** 		float angleRad = (float) angle * PI / 180;
 3671              		.loc 1 522 60 is_stmt 0 discriminator 2 view .LVU956
 3672 005a 24B2     		sxth	r4, r4
 3673              	.LVL425:
 3674              	.L193:
 522:Core/Src/dispcolor.c **** 		float angleRad = (float) angle * PI / 180;
 3675              		.loc 1 522 41 is_stmt 1 discriminator 1 view .LVU957
 3676 005c 5C45     		cmp	r4, fp
 3677 005e 61DC     		bgt	.L201
 3678              	.LBB19:
 523:Core/Src/dispcolor.c **** 		int x = cos(angleRad) * radius + x0;
ARM GAS  C:\Users\kroko\AppData\Local\Temp\ccNEdXH2.s 			page 90


 3679              		.loc 1 523 3 view .LVU958
 523:Core/Src/dispcolor.c **** 		int x = cos(angleRad) * radius + x0;
 3680              		.loc 1 523 20 is_stmt 0 view .LVU959
 3681 0060 07EE904A 		vmov	s15, r4	@ int
 3682 0064 F8EEE77A 		vcvt.f32.s32	s15, s15
 3683 0068 17EE900A 		vmov	r0, s15
 3684 006c FFF7FEFF 		bl	__aeabi_f2d
 3685              	.LVL426:
 523:Core/Src/dispcolor.c **** 		int x = cos(angleRad) * radius + x0;
 3686              		.loc 1 523 34 view .LVU960
 3687 0070 30A3     		adr	r3, .L202+4
 3688 0072 D3E90023 		ldrd	r2, [r3]
 3689 0076 FFF7FEFF 		bl	__aeabi_dmul
 3690              	.LVL427:
 523:Core/Src/dispcolor.c **** 		int x = cos(angleRad) * radius + x0;
 3691              		.loc 1 523 39 view .LVU961
 3692 007a 0022     		movs	r2, #0
 3693 007c 2C4B     		ldr	r3, .L202
 3694 007e FFF7FEFF 		bl	__aeabi_ddiv
 3695              	.LVL428:
 523:Core/Src/dispcolor.c **** 		int x = cos(angleRad) * radius + x0;
 3696              		.loc 1 523 9 view .LVU962
 3697 0082 FFF7FEFF 		bl	__aeabi_d2f
 3698              	.LVL429:
 524:Core/Src/dispcolor.c **** 		int y = sin(angleRad) * radius + y0;
 3699              		.loc 1 524 3 is_stmt 1 view .LVU963
 524:Core/Src/dispcolor.c **** 		int y = sin(angleRad) * radius + y0;
 3700              		.loc 1 524 11 is_stmt 0 view .LVU964
 3701 0086 FFF7FEFF 		bl	__aeabi_f2d
 3702              	.LVL430:
 524:Core/Src/dispcolor.c **** 		int y = sin(angleRad) * radius + y0;
 3703              		.loc 1 524 11 view .LVU965
 3704 008a 41EC180B 		vmov	d8, r0, r1
 3705 008e B0EE480A 		vmov.f32	s0, s16
 3706 0092 F0EE680A 		vmov.f32	s1, s17
 3707 0096 FFF7FEFF 		bl	cos
 3708              	.LVL431:
 3709 009a 57EC106B 		vmov	r6, r7, d0
 524:Core/Src/dispcolor.c **** 		int y = sin(angleRad) * radius + y0;
 3710              		.loc 1 524 25 discriminator 1 view .LVU966
 3711 009e 0598     		ldr	r0, [sp, #20]
 3712 00a0 FFF7FEFF 		bl	__aeabi_i2d
 3713              	.LVL432:
 3714 00a4 8046     		mov	r8, r0
 3715 00a6 8946     		mov	r9, r1
 3716 00a8 0246     		mov	r2, r0
 3717 00aa 0B46     		mov	r3, r1
 3718 00ac 3046     		mov	r0, r6
 3719 00ae 3946     		mov	r1, r7
 3720 00b0 FFF7FEFF 		bl	__aeabi_dmul
 3721              	.LVL433:
 3722 00b4 0646     		mov	r6, r0
 3723 00b6 0F46     		mov	r7, r1
 524:Core/Src/dispcolor.c **** 		int y = sin(angleRad) * radius + y0;
 3724              		.loc 1 524 34 discriminator 1 view .LVU967
 3725 00b8 0398     		ldr	r0, [sp, #12]
 3726 00ba FFF7FEFF 		bl	__aeabi_i2d
ARM GAS  C:\Users\kroko\AppData\Local\Temp\ccNEdXH2.s 			page 91


 3727              	.LVL434:
 3728 00be 3246     		mov	r2, r6
 3729 00c0 3B46     		mov	r3, r7
 3730 00c2 FFF7FEFF 		bl	__aeabi_dadd
 3731              	.LVL435:
 524:Core/Src/dispcolor.c **** 		int y = sin(angleRad) * radius + y0;
 3732              		.loc 1 524 7 discriminator 1 view .LVU968
 3733 00c6 FFF7FEFF 		bl	__aeabi_d2iz
 3734              	.LVL436:
 3735 00ca 0290     		str	r0, [sp, #8]
 3736              	.LVL437:
 525:Core/Src/dispcolor.c **** 
 3737              		.loc 1 525 3 is_stmt 1 view .LVU969
 525:Core/Src/dispcolor.c **** 
 3738              		.loc 1 525 11 is_stmt 0 view .LVU970
 3739 00cc B0EE480A 		vmov.f32	s0, s16
 3740 00d0 F0EE680A 		vmov.f32	s1, s17
 3741 00d4 FFF7FEFF 		bl	sin
 3742              	.LVL438:
 525:Core/Src/dispcolor.c **** 
 3743              		.loc 1 525 11 view .LVU971
 3744 00d8 53EC102B 		vmov	r2, r3, d0
 525:Core/Src/dispcolor.c **** 
 3745              		.loc 1 525 25 discriminator 1 view .LVU972
 3746 00dc 4046     		mov	r0, r8
 3747 00de 4946     		mov	r1, r9
 3748 00e0 FFF7FEFF 		bl	__aeabi_dmul
 3749              	.LVL439:
 3750 00e4 0646     		mov	r6, r0
 3751 00e6 0F46     		mov	r7, r1
 525:Core/Src/dispcolor.c **** 
 3752              		.loc 1 525 34 discriminator 1 view .LVU973
 3753 00e8 0498     		ldr	r0, [sp, #16]
 3754 00ea FFF7FEFF 		bl	__aeabi_i2d
 3755              	.LVL440:
 3756 00ee 3246     		mov	r2, r6
 3757 00f0 3B46     		mov	r3, r7
 3758 00f2 FFF7FEFF 		bl	__aeabi_dadd
 3759              	.LVL441:
 525:Core/Src/dispcolor.c **** 
 3760              		.loc 1 525 7 discriminator 1 view .LVU974
 3761 00f6 FFF7FEFF 		bl	__aeabi_d2iz
 3762              	.LVL442:
 3763 00fa 0646     		mov	r6, r0
 3764              	.LVL443:
 527:Core/Src/dispcolor.c **** 			xLast = x;
 3765              		.loc 1 527 3 is_stmt 1 view .LVU975
 527:Core/Src/dispcolor.c **** 			xLast = x;
 3766              		.loc 1 527 6 is_stmt 0 view .LVU976
 3767 00fc B5F1FF3F 		cmp	r5, #-1
 3768 0100 98D0     		beq	.L194
 527:Core/Src/dispcolor.c **** 			xLast = x;
 3769              		.loc 1 527 19 discriminator 2 view .LVU977
 3770 0102 BAF1FF3F 		cmp	r10, #-1
 3771 0106 95D0     		beq	.L194
 533:Core/Src/dispcolor.c **** 			dispcolor_DrawLine2(xLast, yLast, x, y, color, thick);
 3772              		.loc 1 533 3 is_stmt 1 view .LVU978
ARM GAS  C:\Users\kroko\AppData\Local\Temp\ccNEdXH2.s 			page 92


 533:Core/Src/dispcolor.c **** 			dispcolor_DrawLine2(xLast, yLast, x, y, color, thick);
 3773              		.loc 1 533 6 is_stmt 0 view .LVU979
 3774 0108 079B     		ldr	r3, [sp, #28]
 3775 010a 012B     		cmp	r3, #1
 3776 010c 97D9     		bls	.L197
 534:Core/Src/dispcolor.c **** 		else
 3777              		.loc 1 534 4 is_stmt 1 view .LVU980
 3778 010e 0193     		str	r3, [sp, #4]
 3779 0110 069B     		ldr	r3, [sp, #24]
 3780 0112 0093     		str	r3, [sp]
 3781 0114 03B2     		sxth	r3, r0
 3782 0116 BDF90820 		ldrsh	r2, [sp, #8]
 3783 011a 5146     		mov	r1, r10
 3784 011c 2846     		mov	r0, r5
 3785              	.LVL444:
 534:Core/Src/dispcolor.c **** 		else
 3786              		.loc 1 534 4 is_stmt 0 view .LVU981
 3787 011e FFF7FEFF 		bl	dispcolor_DrawLine2
 3788              	.LVL445:
 3789 0122 95E7     		b	.L198
 3790              	.LVL446:
 3791              	.L201:
 534:Core/Src/dispcolor.c **** 		else
 3792              		.loc 1 534 4 view .LVU982
 3793              	.LBE19:
 3794              	.LBE20:
 541:Core/Src/dispcolor.c **** 
 3795              		.loc 1 541 1 view .LVU983
 3796 0124 09B0     		add	sp, sp, #36
 3797              		.cfi_def_cfa_offset 44
 3798              		@ sp needed
 3799 0126 BDEC028B 		vldm	sp!, {d8}
 3800              		.cfi_restore 80
 3801              		.cfi_restore 81
 3802              		.cfi_def_cfa_offset 36
 3803 012a BDE8F08F 		pop	{r4, r5, r6, r7, r8, r9, r10, fp, pc}
 3804              	.LVL447:
 3805              	.L203:
 541:Core/Src/dispcolor.c **** 
 3806              		.loc 1 541 1 view .LVU984
 3807 012e 00BF     		.align	3
 3808              	.L202:
 3809 0130 00806640 		.word	1080459264
 3810 0134 F1D4C853 		.word	1405670641
 3811 0138 FB210940 		.word	1074340347
 3812              		.cfi_endproc
 3813              	.LFE31:
 3815              		.section	.text.dispcolor_DrawArc_Wu,"ax",%progbits
 3816              		.align	1
 3817              		.global	dispcolor_DrawArc_Wu
 3818              		.syntax unified
 3819              		.thumb
 3820              		.thumb_func
 3822              	dispcolor_DrawArc_Wu:
 3823              	.LVL448:
 3824              	.LFB32:
 544:Core/Src/dispcolor.c **** 	int16_t xLast = -1, yLast = -1;
ARM GAS  C:\Users\kroko\AppData\Local\Temp\ccNEdXH2.s 			page 93


 3825              		.loc 1 544 72 is_stmt 1 view -0
 3826              		.cfi_startproc
 3827              		@ args = 12, pretend = 0, frame = 24
 3828              		@ frame_needed = 0, uses_anonymous_args = 0
 544:Core/Src/dispcolor.c **** 	int16_t xLast = -1, yLast = -1;
 3829              		.loc 1 544 72 is_stmt 0 view .LVU986
 3830 0000 2DE9F04F 		push	{r4, r5, r6, r7, r8, r9, r10, fp, lr}
 3831              		.cfi_def_cfa_offset 36
 3832              		.cfi_offset 4, -36
 3833              		.cfi_offset 5, -32
 3834              		.cfi_offset 6, -28
 3835              		.cfi_offset 7, -24
 3836              		.cfi_offset 8, -20
 3837              		.cfi_offset 9, -16
 3838              		.cfi_offset 10, -12
 3839              		.cfi_offset 11, -8
 3840              		.cfi_offset 14, -4
 3841 0004 2DED028B 		vpush.64	{d8}
 3842              		.cfi_def_cfa_offset 44
 3843              		.cfi_offset 80, -44
 3844              		.cfi_offset 81, -40
 3845 0008 89B0     		sub	sp, sp, #36
 3846              		.cfi_def_cfa_offset 80
 3847 000a 0390     		str	r0, [sp, #12]
 3848 000c 0491     		str	r1, [sp, #16]
 3849 000e 0592     		str	r2, [sp, #20]
 3850 0010 BDF85420 		ldrh	r2, [sp, #84]
 3851              	.LVL449:
 544:Core/Src/dispcolor.c **** 	int16_t xLast = -1, yLast = -1;
 3852              		.loc 1 544 72 view .LVU987
 3853 0014 0692     		str	r2, [sp, #24]
 3854 0016 9DF85820 		ldrb	r2, [sp, #88]	@ zero_extendqisi2
 3855 001a 0792     		str	r2, [sp, #28]
 545:Core/Src/dispcolor.c **** 	startAngle -= 90;
 3856              		.loc 1 545 2 is_stmt 1 view .LVU988
 3857              	.LVL450:
 546:Core/Src/dispcolor.c **** 	endAngle -= 90;
 3858              		.loc 1 546 2 view .LVU989
 546:Core/Src/dispcolor.c **** 	endAngle -= 90;
 3859              		.loc 1 546 13 is_stmt 0 view .LVU990
 3860 001c A3F15A04 		sub	r4, r3, #90
 3861 0020 24B2     		sxth	r4, r4
 3862              	.LVL451:
 547:Core/Src/dispcolor.c **** 
 3863              		.loc 1 547 2 is_stmt 1 view .LVU991
 547:Core/Src/dispcolor.c **** 
 3864              		.loc 1 547 11 is_stmt 0 view .LVU992
 3865 0022 BDF95030 		ldrsh	r3, [sp, #80]
 3866 0026 5A3B     		subs	r3, r3, #90
 3867 0028 0FFA83FB 		sxth	fp, r3
 3868              	.LVL452:
 549:Core/Src/dispcolor.c **** 			{
 3869              		.loc 1 549 2 is_stmt 1 view .LVU993
 3870              	.LBB21:
 549:Core/Src/dispcolor.c **** 			{
 3871              		.loc 1 549 7 view .LVU994
 549:Core/Src/dispcolor.c **** 			{
ARM GAS  C:\Users\kroko\AppData\Local\Temp\ccNEdXH2.s 			page 94


 3872              		.loc 1 549 7 is_stmt 0 view .LVU995
 3873              	.LBE21:
 545:Core/Src/dispcolor.c **** 	startAngle -= 90;
 3874              		.loc 1 545 22 view .LVU996
 3875 002c 4FF0FF3A 		mov	r10, #-1
 545:Core/Src/dispcolor.c **** 	startAngle -= 90;
 3876              		.loc 1 545 10 view .LVU997
 3877 0030 5546     		mov	r5, r10
 3878              	.LBB24:
 549:Core/Src/dispcolor.c **** 			{
 3879              		.loc 1 549 2 view .LVU998
 3880 0032 13E0     		b	.L205
 3881              	.LVL453:
 3882              	.L206:
 3883              	.LBB22:
 556:Core/Src/dispcolor.c **** 			yLast = y;
 3884              		.loc 1 556 4 is_stmt 1 view .LVU999
 556:Core/Src/dispcolor.c **** 			yLast = y;
 3885              		.loc 1 556 10 is_stmt 0 view .LVU1000
 3886 0034 BDF90850 		ldrsh	r5, [sp, #8]
 3887              	.LVL454:
 557:Core/Src/dispcolor.c **** 			continue;
 3888              		.loc 1 557 4 is_stmt 1 view .LVU1001
 557:Core/Src/dispcolor.c **** 			continue;
 3889              		.loc 1 557 10 is_stmt 0 view .LVU1002
 3890 0038 0FFA86FA 		sxth	r10, r6
 3891              	.LVL455:
 558:Core/Src/dispcolor.c **** 		}
 3892              		.loc 1 558 4 is_stmt 1 view .LVU1003
 3893 003c 0CE0     		b	.L208
 3894              	.L209:
 564:Core/Src/dispcolor.c **** 
 3895              		.loc 1 564 4 view .LVU1004
 3896 003e 069B     		ldr	r3, [sp, #24]
 3897 0040 0093     		str	r3, [sp]
 3898 0042 03B2     		sxth	r3, r0
 3899 0044 BDF90820 		ldrsh	r2, [sp, #8]
 3900 0048 5146     		mov	r1, r10
 3901 004a 2846     		mov	r0, r5
 3902              	.LVL456:
 564:Core/Src/dispcolor.c **** 
 3903              		.loc 1 564 4 is_stmt 0 view .LVU1005
 3904 004c FFF7FEFF 		bl	dispcolor_DrawLine_Wu
 3905              	.LVL457:
 3906              	.L210:
 566:Core/Src/dispcolor.c **** 		yLast = y;
 3907              		.loc 1 566 3 is_stmt 1 view .LVU1006
 566:Core/Src/dispcolor.c **** 		yLast = y;
 3908              		.loc 1 566 9 is_stmt 0 view .LVU1007
 3909 0050 BDF90850 		ldrsh	r5, [sp, #8]
 3910              	.LVL458:
 567:Core/Src/dispcolor.c **** 	}
 3911              		.loc 1 567 3 is_stmt 1 view .LVU1008
 567:Core/Src/dispcolor.c **** 	}
 3912              		.loc 1 567 9 is_stmt 0 view .LVU1009
 3913 0054 0FFA86FA 		sxth	r10, r6
 3914              	.LVL459:
ARM GAS  C:\Users\kroko\AppData\Local\Temp\ccNEdXH2.s 			page 95


 3915              	.L208:
 567:Core/Src/dispcolor.c **** 	}
 3916              		.loc 1 567 9 view .LVU1010
 3917              	.LBE22:
 549:Core/Src/dispcolor.c **** 			{
 3918              		.loc 1 549 60 is_stmt 1 discriminator 2 view .LVU1011
 3919 0058 0134     		adds	r4, r4, #1
 3920              	.LVL460:
 549:Core/Src/dispcolor.c **** 			{
 3921              		.loc 1 549 60 is_stmt 0 discriminator 2 view .LVU1012
 3922 005a 24B2     		sxth	r4, r4
 3923              	.LVL461:
 3924              	.L205:
 549:Core/Src/dispcolor.c **** 			{
 3925              		.loc 1 549 41 is_stmt 1 discriminator 1 view .LVU1013
 3926 005c 5C45     		cmp	r4, fp
 3927 005e 5EDC     		bgt	.L213
 3928              	.LBB23:
 551:Core/Src/dispcolor.c **** 		int x = cos(angleRad) * radius + x0;
 3929              		.loc 1 551 3 view .LVU1014
 551:Core/Src/dispcolor.c **** 		int x = cos(angleRad) * radius + x0;
 3930              		.loc 1 551 20 is_stmt 0 view .LVU1015
 3931 0060 07EE904A 		vmov	s15, r4	@ int
 3932 0064 F8EEE77A 		vcvt.f32.s32	s15, s15
 3933 0068 17EE900A 		vmov	r0, s15
 3934 006c FFF7FEFF 		bl	__aeabi_f2d
 3935              	.LVL462:
 551:Core/Src/dispcolor.c **** 		int x = cos(angleRad) * radius + x0;
 3936              		.loc 1 551 34 view .LVU1016
 3937 0070 2EA3     		adr	r3, .L214+4
 3938 0072 D3E90023 		ldrd	r2, [r3]
 3939 0076 FFF7FEFF 		bl	__aeabi_dmul
 3940              	.LVL463:
 551:Core/Src/dispcolor.c **** 		int x = cos(angleRad) * radius + x0;
 3941              		.loc 1 551 39 view .LVU1017
 3942 007a 0022     		movs	r2, #0
 3943 007c 2A4B     		ldr	r3, .L214
 3944 007e FFF7FEFF 		bl	__aeabi_ddiv
 3945              	.LVL464:
 551:Core/Src/dispcolor.c **** 		int x = cos(angleRad) * radius + x0;
 3946              		.loc 1 551 9 view .LVU1018
 3947 0082 FFF7FEFF 		bl	__aeabi_d2f
 3948              	.LVL465:
 552:Core/Src/dispcolor.c **** 		int y = sin(angleRad) * radius + y0;
 3949              		.loc 1 552 3 is_stmt 1 view .LVU1019
 552:Core/Src/dispcolor.c **** 		int y = sin(angleRad) * radius + y0;
 3950              		.loc 1 552 11 is_stmt 0 view .LVU1020
 3951 0086 FFF7FEFF 		bl	__aeabi_f2d
 3952              	.LVL466:
 552:Core/Src/dispcolor.c **** 		int y = sin(angleRad) * radius + y0;
 3953              		.loc 1 552 11 view .LVU1021
 3954 008a 41EC180B 		vmov	d8, r0, r1
 3955 008e B0EE480A 		vmov.f32	s0, s16
 3956 0092 F0EE680A 		vmov.f32	s1, s17
 3957 0096 FFF7FEFF 		bl	cos
 3958              	.LVL467:
 3959 009a 57EC106B 		vmov	r6, r7, d0
ARM GAS  C:\Users\kroko\AppData\Local\Temp\ccNEdXH2.s 			page 96


 552:Core/Src/dispcolor.c **** 		int y = sin(angleRad) * radius + y0;
 3960              		.loc 1 552 25 discriminator 1 view .LVU1022
 3961 009e 0598     		ldr	r0, [sp, #20]
 3962 00a0 FFF7FEFF 		bl	__aeabi_i2d
 3963              	.LVL468:
 3964 00a4 8046     		mov	r8, r0
 3965 00a6 8946     		mov	r9, r1
 3966 00a8 0246     		mov	r2, r0
 3967 00aa 0B46     		mov	r3, r1
 3968 00ac 3046     		mov	r0, r6
 3969 00ae 3946     		mov	r1, r7
 3970 00b0 FFF7FEFF 		bl	__aeabi_dmul
 3971              	.LVL469:
 3972 00b4 0646     		mov	r6, r0
 3973 00b6 0F46     		mov	r7, r1
 552:Core/Src/dispcolor.c **** 		int y = sin(angleRad) * radius + y0;
 3974              		.loc 1 552 34 discriminator 1 view .LVU1023
 3975 00b8 0398     		ldr	r0, [sp, #12]
 3976 00ba FFF7FEFF 		bl	__aeabi_i2d
 3977              	.LVL470:
 3978 00be 3246     		mov	r2, r6
 3979 00c0 3B46     		mov	r3, r7
 3980 00c2 FFF7FEFF 		bl	__aeabi_dadd
 3981              	.LVL471:
 552:Core/Src/dispcolor.c **** 		int y = sin(angleRad) * radius + y0;
 3982              		.loc 1 552 7 discriminator 1 view .LVU1024
 3983 00c6 FFF7FEFF 		bl	__aeabi_d2iz
 3984              	.LVL472:
 3985 00ca 0290     		str	r0, [sp, #8]
 3986              	.LVL473:
 553:Core/Src/dispcolor.c **** 
 3987              		.loc 1 553 3 is_stmt 1 view .LVU1025
 553:Core/Src/dispcolor.c **** 
 3988              		.loc 1 553 11 is_stmt 0 view .LVU1026
 3989 00cc B0EE480A 		vmov.f32	s0, s16
 3990 00d0 F0EE680A 		vmov.f32	s1, s17
 3991 00d4 FFF7FEFF 		bl	sin
 3992              	.LVL474:
 553:Core/Src/dispcolor.c **** 
 3993              		.loc 1 553 11 view .LVU1027
 3994 00d8 53EC102B 		vmov	r2, r3, d0
 553:Core/Src/dispcolor.c **** 
 3995              		.loc 1 553 25 discriminator 1 view .LVU1028
 3996 00dc 4046     		mov	r0, r8
 3997 00de 4946     		mov	r1, r9
 3998 00e0 FFF7FEFF 		bl	__aeabi_dmul
 3999              	.LVL475:
 4000 00e4 0646     		mov	r6, r0
 4001 00e6 0F46     		mov	r7, r1
 553:Core/Src/dispcolor.c **** 
 4002              		.loc 1 553 34 discriminator 1 view .LVU1029
